---
triple:          'x86_64-apple-darwin'
binary-path:     '/Users/daniellee/cpp/cpp-template-compiler/main'
relocations:
  - { offsetInCU: 0xB40C, offset: 0xB40C, size: 0x8, addend: 0x0, symName: __ZNSt3__119__debug_db_insert_cB7v160006INS_12basic_stringIcNS_11char_traitsIcEENS_9allocatorIcEEEEEEvPT_, symObjAddr: 0x200, symBinAddr: 0x100002E30, symSize: 0x10 }
  - { offsetInCU: 0xB43D, offset: 0xB43D, size: 0x8, addend: 0x0, symName: __ZNSt3__118__constexpr_strlenB7v160006EPKc, symObjAddr: 0x2A0, symBinAddr: 0x100002ED0, symSize: 0x20 }
  - { offsetInCU: 0xB49C, offset: 0xB49C, size: 0x8, addend: 0x0, symName: __ZNSt3__119__debug_db_insert_cB7v160006INS_6vectorINS1_INS_12basic_stringIcNS_11char_traitsIcEENS_9allocatorIcEEEENS5_IS7_EEEENS5_IS9_EEEEEEvPT_, symObjAddr: 0xA60, symBinAddr: 0x100003690, symSize: 0x10 }
  - { offsetInCU: 0xB4CD, offset: 0xB4CD, size: 0x8, addend: 0x0, symName: __ZNSt3__118__debug_db_erase_cB7v160006INS_6vectorINS1_INS_12basic_stringIcNS_11char_traitsIcEENS_9allocatorIcEEEENS5_IS7_EEEENS5_IS9_EEEEEEvPT_, symObjAddr: 0xD70, symBinAddr: 0x1000039A0, symSize: 0x10 }
  - { offsetInCU: 0xB4FE, offset: 0xB4FE, size: 0x8, addend: 0x0, symName: __ZNSt3__112__to_addressB7v160006INS_6vectorINS_12basic_stringIcNS_11char_traitsIcEENS_9allocatorIcEEEENS5_IS7_EEEEEEPT_SB_, symObjAddr: 0xEA0, symBinAddr: 0x100003AD0, symSize: 0x10 }
  - { offsetInCU: 0xB533, offset: 0xB533, size: 0x8, addend: 0x0, symName: __ZNSt3__110destroy_atB7v160006INS_6vectorINS_12basic_stringIcNS_11char_traitsIcEENS_9allocatorIcEEEENS5_IS7_EEEELi0EEEvPT_, symObjAddr: 0xF50, symBinAddr: 0x100003B80, symSize: 0x20 }
  - { offsetInCU: 0xB56A, offset: 0xB56A, size: 0x8, addend: 0x0, symName: __ZNSt3__112__destroy_atB7v160006INS_6vectorINS_12basic_stringIcNS_11char_traitsIcEENS_9allocatorIcEEEENS5_IS7_EEEELi0EEEvPT_, symObjAddr: 0xF70, symBinAddr: 0x100003BA0, symSize: 0x20 }
  - { offsetInCU: 0xB5A1, offset: 0xB5A1, size: 0x8, addend: 0x0, symName: __ZNSt3__118__debug_db_erase_cB7v160006INS_6vectorINS_12basic_stringIcNS_11char_traitsIcEENS_9allocatorIcEEEENS5_IS7_EEEEEEvPT_, symObjAddr: 0x1180, symBinAddr: 0x100003DB0, symSize: 0x10 }
  - { offsetInCU: 0xB5D2, offset: 0xB5D2, size: 0x8, addend: 0x0, symName: __ZNSt3__112__to_addressB7v160006INS_12basic_stringIcNS_11char_traitsIcEENS_9allocatorIcEEEEEEPT_S8_, symObjAddr: 0x12B0, symBinAddr: 0x100003EE0, symSize: 0x10 }
  - { offsetInCU: 0xB607, offset: 0xB607, size: 0x8, addend: 0x0, symName: __ZNSt3__110destroy_atB7v160006INS_12basic_stringIcNS_11char_traitsIcEENS_9allocatorIcEEEELi0EEEvPT_, symObjAddr: 0x1360, symBinAddr: 0x100003F90, symSize: 0x20 }
  - { offsetInCU: 0xB63E, offset: 0xB63E, size: 0x8, addend: 0x0, symName: __ZNSt3__112__destroy_atB7v160006INS_12basic_stringIcNS_11char_traitsIcEENS_9allocatorIcEEEELi0EEEvPT_, symObjAddr: 0x1380, symBinAddr: 0x100003FB0, symSize: 0x20 }
  - { offsetInCU: 0xB675, offset: 0xB675, size: 0x8, addend: 0x0, symName: __ZNSt3__119__libcpp_deallocateB7v160006EPvmm, symObjAddr: 0x13F0, symBinAddr: 0x100004020, symSize: 0x60 }
  - { offsetInCU: 0xB6DA, offset: 0xB6DA, size: 0x8, addend: 0x0, symName: __ZNSt3__124__is_overaligned_for_newB7v160006Em, symObjAddr: 0x1450, symBinAddr: 0x100004080, symSize: 0x20 }
  - { offsetInCU: 0xB708, offset: 0xB708, size: 0x8, addend: 0x0, symName: __ZNSt3__127__do_deallocate_handle_sizeB7v160006IJSt11align_val_tEEEvPvmDpT_, symObjAddr: 0x1470, symBinAddr: 0x1000040A0, symSize: 0x30 }
  - { offsetInCU: 0xB75B, offset: 0xB75B, size: 0x8, addend: 0x0, symName: __ZNSt3__127__do_deallocate_handle_sizeB7v160006IJEEEvPvmDpT_, symObjAddr: 0x14A0, symBinAddr: 0x1000040D0, symSize: 0x20 }
  - { offsetInCU: 0xB799, offset: 0xB799, size: 0x8, addend: 0x0, symName: __ZNSt3__124__libcpp_operator_deleteB7v160006IJPvSt11align_val_tEEEvDpT_, symObjAddr: 0x14C0, symBinAddr: 0x1000040F0, symSize: 0x30 }
  - { offsetInCU: 0xB7E2, offset: 0xB7E2, size: 0x8, addend: 0x0, symName: __ZNSt3__124__libcpp_operator_deleteB7v160006IJPvEEEvDpT_, symObjAddr: 0x14F0, symBinAddr: 0x100004120, symSize: 0x20 }
  - { offsetInCU: 0xB817, offset: 0xB817, size: 0x8, addend: 0x0, symName: __ZNSt3__1neB7v160006ERKNS_16__deque_iteratorINS_13unordered_setINS_12basic_stringIcNS_11char_traitsIcEENS_9allocatorIcEEEENS_4hashIS7_EENS_8equal_toIS7_EENS5_IS7_EEEEPSD_RSD_PSE_lLl102EEESJ_, symObjAddr: 0x1B50, symBinAddr: 0x100004780, symSize: 0x30 }
  - { offsetInCU: 0xB854, offset: 0xB854, size: 0x8, addend: 0x0, symName: __ZNSt3__1eqB7v160006ERKNS_16__deque_iteratorINS_13unordered_setINS_12basic_stringIcNS_11char_traitsIcEENS_9allocatorIcEEEENS_4hashIS7_EENS_8equal_toIS7_EENS5_IS7_EEEEPSD_RSD_PSE_lLl102EEESJ_, symObjAddr: 0x1DA0, symBinAddr: 0x1000049D0, symSize: 0x30 }
  - { offsetInCU: 0xB891, offset: 0xB891, size: 0x8, addend: 0x0, symName: __ZNSt3__110destroy_atB7v160006INS_13unordered_setINS_12basic_stringIcNS_11char_traitsIcEENS_9allocatorIcEEEENS_4hashIS7_EENS_8equal_toIS7_EENS5_IS7_EEEELi0EEEvPT_, symObjAddr: 0x1DD0, symBinAddr: 0x100004A00, symSize: 0x20 }
  - { offsetInCU: 0xB8C8, offset: 0xB8C8, size: 0x8, addend: 0x0, symName: __ZNSt3__112__destroy_atB7v160006INS_13unordered_setINS_12basic_stringIcNS_11char_traitsIcEENS_9allocatorIcEEEENS_4hashIS7_EENS_8equal_toIS7_EENS5_IS7_EEEELi0EEEvPT_, symObjAddr: 0x1DF0, symBinAddr: 0x100004A20, symSize: 0x20 }
  - { offsetInCU: 0xB8FF, offset: 0xB8FF, size: 0x8, addend: 0x0, symName: __ZNSt3__118__debug_db_erase_cB7v160006INS_12__hash_tableINS_12basic_stringIcNS_11char_traitsIcEENS_9allocatorIcEEEENS_4hashIS7_EENS_8equal_toIS7_EENS5_IS7_EEEEEEvPT_, symObjAddr: 0x1F80, symBinAddr: 0x100004BB0, symSize: 0x10 }
  - { offsetInCU: 0xB9F0, offset: 0xB9F0, size: 0x8, addend: 0x0, symName: __ZNSt3__112__to_addressB7v160006IPNS_13unordered_setINS_12basic_stringIcNS_11char_traitsIcEENS_9allocatorIcEEEENS_4hashIS7_EENS_8equal_toIS7_EENS5_IS7_EEEEEEPT_SG_, symObjAddr: 0x2600, symBinAddr: 0x100005230, symSize: 0x10 }
  - { offsetInCU: 0xBA25, offset: 0xBA25, size: 0x8, addend: 0x0, symName: __ZNSt3__110destroy_atB7v160006IPNS_13unordered_setINS_12basic_stringIcNS_11char_traitsIcEENS_9allocatorIcEEEENS_4hashIS7_EENS_8equal_toIS7_EENS5_IS7_EEEELi0EEEvPT_, symObjAddr: 0x2610, symBinAddr: 0x100005240, symSize: 0x20 }
  - { offsetInCU: 0xBA5C, offset: 0xBA5C, size: 0x8, addend: 0x0, symName: __ZNSt3__112__destroy_atB7v160006IPNS_13unordered_setINS_12basic_stringIcNS_11char_traitsIcEENS_9allocatorIcEEEENS_4hashIS7_EENS_8equal_toIS7_EENS5_IS7_EEEELi0EEEvPT_, symObjAddr: 0x2630, symBinAddr: 0x100005260, symSize: 0x10 }
  - { offsetInCU: 0xBA93, offset: 0xBA93, size: 0x8, addend: 0x0, symName: __ZNSt3__110destroy_atB7v160006INS_4pairIKNS_12basic_stringIcNS_11char_traitsIcEENS_9allocatorIcEEEEiEELi0EEEvPT_, symObjAddr: 0x2900, symBinAddr: 0x100005530, symSize: 0x20 }
  - { offsetInCU: 0xBACA, offset: 0xBACA, size: 0x8, addend: 0x0, symName: __ZNSt3__112__destroy_atB7v160006INS_4pairIKNS_12basic_stringIcNS_11char_traitsIcEENS_9allocatorIcEEEEiEELi0EEEvPT_, symObjAddr: 0x2920, symBinAddr: 0x100005550, symSize: 0x20 }
  - { offsetInCU: 0xBB01, offset: 0xBB01, size: 0x8, addend: 0x0, symName: __ZNSt3__17launderB7v160006INS_4pairIKNS_12basic_stringIcNS_11char_traitsIcEENS_9allocatorIcEEEEiEEEEPT_SB_, symObjAddr: 0x29A0, symBinAddr: 0x1000055D0, symSize: 0x20 }
  - { offsetInCU: 0xBB38, offset: 0xBB38, size: 0x8, addend: 0x0, symName: __ZNSt3__19__launderB7v160006INS_4pairIKNS_12basic_stringIcNS_11char_traitsIcEENS_9allocatorIcEEEEiEEEEPT_SB_, symObjAddr: 0x29C0, symBinAddr: 0x1000055F0, symSize: 0x10 }
  - { offsetInCU: 0xED3A, offset: 0xED3A, size: 0x8, addend: 0x0, symName: _main, symObjAddr: 0x0, symBinAddr: 0x100002C30, symSize: 0xD0 }
  - { offsetInCU: 0xED68, offset: 0xED68, size: 0x8, addend: 0x0, symName: __ZNSt3__112basic_stringIcNS_11char_traitsIcEENS_9allocatorIcEEEC1B7v160006IDnEEPKc, symObjAddr: 0xD0, symBinAddr: 0x100002D00, symSize: 0x30 }
  - { offsetInCU: 0xEDA4, offset: 0xEDA4, size: 0x8, addend: 0x0, symName: __ZN6ParserC1ENSt3__112basic_stringIcNS0_11char_traitsIcEENS0_9allocatorIcEEEE, symObjAddr: 0x100, symBinAddr: 0x100002D30, symSize: 0x20 }
  - { offsetInCU: 0xEDDB, offset: 0xEDDB, size: 0x8, addend: 0x0, symName: __ZN6ParserD1Ev, symObjAddr: 0x120, symBinAddr: 0x100002D50, symSize: 0x20 }
  - { offsetInCU: 0xEE05, offset: 0xEE05, size: 0x8, addend: 0x0, symName: __ZNSt3__112basic_stringIcNS_11char_traitsIcEENS_9allocatorIcEEEC2B7v160006IDnEEPKc, symObjAddr: 0x140, symBinAddr: 0x100002D70, symSize: 0x60 }
  - { offsetInCU: 0xEE46, offset: 0xEE46, size: 0x8, addend: 0x0, symName: __ZNSt3__117__compressed_pairINS_12basic_stringIcNS_11char_traitsIcEENS_9allocatorIcEEE5__repES5_EC1B7v160006INS_18__default_init_tagESA_EEOT_OT0_, symObjAddr: 0x1A0, symBinAddr: 0x100002DD0, symSize: 0x30 }
  - { offsetInCU: 0xEE9C, offset: 0xEE9C, size: 0x8, addend: 0x0, symName: __ZNSt3__111char_traitsIcE6lengthEPKc, symObjAddr: 0x1D0, symBinAddr: 0x100002E00, symSize: 0x30 }
  - { offsetInCU: 0xEEBE, offset: 0xEEBE, size: 0x8, addend: 0x0, symName: __ZNSt3__117__compressed_pairINS_12basic_stringIcNS_11char_traitsIcEENS_9allocatorIcEEE5__repES5_EC2B7v160006INS_18__default_init_tagESA_EEOT_OT0_, symObjAddr: 0x210, symBinAddr: 0x100002E40, symSize: 0x30 }
  - { offsetInCU: 0xEF14, offset: 0xEF14, size: 0x8, addend: 0x0, symName: __ZNSt3__122__compressed_pair_elemINS_12basic_stringIcNS_11char_traitsIcEENS_9allocatorIcEEE5__repELi0ELb0EEC2B7v160006ENS_18__default_init_tagE, symObjAddr: 0x240, symBinAddr: 0x100002E70, symSize: 0x10 }
  - { offsetInCU: 0xEF46, offset: 0xEF46, size: 0x8, addend: 0x0, symName: __ZNSt3__122__compressed_pair_elemINS_9allocatorIcEELi1ELb1EEC2B7v160006ENS_18__default_init_tagE, symObjAddr: 0x250, symBinAddr: 0x100002E80, symSize: 0x20 }
  - { offsetInCU: 0xEF78, offset: 0xEF78, size: 0x8, addend: 0x0, symName: __ZNSt3__19allocatorIcEC2B7v160006Ev, symObjAddr: 0x270, symBinAddr: 0x100002EA0, symSize: 0x20 }
  - { offsetInCU: 0xEFA0, offset: 0xEFA0, size: 0x8, addend: 0x0, symName: __ZNSt3__116__non_trivial_ifILb1ENS_9allocatorIcEEEC2B7v160006Ev, symObjAddr: 0x290, symBinAddr: 0x100002EC0, symSize: 0x10 }
  - { offsetInCU: 0xEFC8, offset: 0xEFC8, size: 0x8, addend: 0x0, symName: __ZN6ParserC2ENSt3__112basic_stringIcNS0_11char_traitsIcEENS0_9allocatorIcEEEE, symObjAddr: 0x2D0, symBinAddr: 0x100002F00, symSize: 0x70 }
  - { offsetInCU: 0xEFFF, offset: 0xEFFF, size: 0x8, addend: 0x0, symName: __ZN9VariablesC1Ev, symObjAddr: 0x340, symBinAddr: 0x100002F70, symSize: 0x20 }
  - { offsetInCU: 0xF027, offset: 0xF027, size: 0x8, addend: 0x0, symName: __ZNSt3__16vectorINS0_INS_12basic_stringIcNS_11char_traitsIcEENS_9allocatorIcEEEENS4_IS6_EEEENS4_IS8_EEEC1B7v160006Ev, symObjAddr: 0x360, symBinAddr: 0x100002F90, symSize: 0x20 }
  - { offsetInCU: 0xF04F, offset: 0xF04F, size: 0x8, addend: 0x0, symName: __ZN9VariablesC2Ev, symObjAddr: 0x380, symBinAddr: 0x100002FB0, symSize: 0x30 }
  - { offsetInCU: 0xF077, offset: 0xF077, size: 0x8, addend: 0x0, symName: __ZNSt3__13mapINS_12basic_stringIcNS_11char_traitsIcEENS_9allocatorIcEEEEiNS_4lessIS6_EENS4_INS_4pairIKS6_iEEEEEC1B7v160006Ev, symObjAddr: 0x3B0, symBinAddr: 0x100002FE0, symSize: 0x20 }
  - { offsetInCU: 0xF09F, offset: 0xF09F, size: 0x8, addend: 0x0, symName: __ZNSt3__15stackINS_13unordered_setINS_12basic_stringIcNS_11char_traitsIcEENS_9allocatorIcEEEENS_4hashIS7_EENS_8equal_toIS7_EENS5_IS7_EEEENS_5dequeISD_NS5_ISD_EEEEEC1B7v160006Ev, symObjAddr: 0x3D0, symBinAddr: 0x100003000, symSize: 0x20 }
  - { offsetInCU: 0xF0C7, offset: 0xF0C7, size: 0x8, addend: 0x0, symName: __ZNSt3__13mapINS_12basic_stringIcNS_11char_traitsIcEENS_9allocatorIcEEEEiNS_4lessIS6_EENS4_INS_4pairIKS6_iEEEEEC2B7v160006Ev, symObjAddr: 0x3F0, symBinAddr: 0x100003020, symSize: 0x30 }
  - { offsetInCU: 0xF0EF, offset: 0xF0EF, size: 0x8, addend: 0x0, symName: __ZNSt3__119__map_value_compareINS_12basic_stringIcNS_11char_traitsIcEENS_9allocatorIcEEEENS_12__value_typeIS6_iEENS_4lessIS6_EELb1EEC1B7v160006ESA_, symObjAddr: 0x420, symBinAddr: 0x100003050, symSize: 0x20 }
  - { offsetInCU: 0xF126, offset: 0xF126, size: 0x8, addend: 0x0, symName: __ZNSt3__16__treeINS_12__value_typeINS_12basic_stringIcNS_11char_traitsIcEENS_9allocatorIcEEEEiEENS_19__map_value_compareIS7_S8_NS_4lessIS7_EELb1EEENS5_IS8_EEEC1ERKSC_, symObjAddr: 0x440, symBinAddr: 0x100003070, symSize: 0x30 }
  - { offsetInCU: 0xF15F, offset: 0xF15F, size: 0x8, addend: 0x0, symName: __ZNSt3__119__map_value_compareINS_12basic_stringIcNS_11char_traitsIcEENS_9allocatorIcEEEENS_12__value_typeIS6_iEENS_4lessIS6_EELb1EEC2B7v160006ESA_, symObjAddr: 0x470, symBinAddr: 0x1000030A0, symSize: 0x10 }
  - { offsetInCU: 0xF196, offset: 0xF196, size: 0x8, addend: 0x0, symName: __ZNSt3__16__treeINS_12__value_typeINS_12basic_stringIcNS_11char_traitsIcEENS_9allocatorIcEEEEiEENS_19__map_value_compareIS7_S8_NS_4lessIS7_EELb1EEENS5_IS8_EEEC2ERKSC_, symObjAddr: 0x480, symBinAddr: 0x1000030B0, symSize: 0x80 }
  - { offsetInCU: 0xF1CF, offset: 0xF1CF, size: 0x8, addend: 0x0, symName: __ZNSt3__117__compressed_pairINS_15__tree_end_nodeIPNS_16__tree_node_baseIPvEEEENS_9allocatorINS_11__tree_nodeINS_12__value_typeINS_12basic_stringIcNS_11char_traitsIcEENS7_IcEEEEiEES3_EEEEEC1B7v160006ILb1EvEEv, symObjAddr: 0x500, symBinAddr: 0x100003130, symSize: 0x20 }
  - { offsetInCU: 0xF207, offset: 0xF207, size: 0x8, addend: 0x0, symName: __ZNSt3__117__compressed_pairImNS_19__map_value_compareINS_12basic_stringIcNS_11char_traitsIcEENS_9allocatorIcEEEENS_12__value_typeIS7_iEENS_4lessIS7_EELb1EEEEC1B7v160006IiRKSC_EEOT_OT0_, symObjAddr: 0x520, symBinAddr: 0x100003150, symSize: 0x30 }
  - { offsetInCU: 0xF25E, offset: 0xF25E, size: 0x8, addend: 0x0, symName: __ZNSt3__16__treeINS_12__value_typeINS_12basic_stringIcNS_11char_traitsIcEENS_9allocatorIcEEEEiEENS_19__map_value_compareIS7_S8_NS_4lessIS7_EELb1EEENS5_IS8_EEE10__end_nodeB7v160006Ev, symObjAddr: 0x550, symBinAddr: 0x100003180, symSize: 0x30 }
  - { offsetInCU: 0xF282, offset: 0xF282, size: 0x8, addend: 0x0, symName: __ZNSt3__16__treeINS_12__value_typeINS_12basic_stringIcNS_11char_traitsIcEENS_9allocatorIcEEEEiEENS_19__map_value_compareIS7_S8_NS_4lessIS7_EELb1EEENS5_IS8_EEE12__begin_nodeB7v160006Ev, symObjAddr: 0x580, symBinAddr: 0x1000031B0, symSize: 0x10 }
  - { offsetInCU: 0xF2A5, offset: 0xF2A5, size: 0x8, addend: 0x0, symName: __ZNSt3__117__compressed_pairINS_15__tree_end_nodeIPNS_16__tree_node_baseIPvEEEENS_9allocatorINS_11__tree_nodeINS_12__value_typeINS_12basic_stringIcNS_11char_traitsIcEENS7_IcEEEEiEES3_EEEEEC2B7v160006ILb1EvEEv, symObjAddr: 0x590, symBinAddr: 0x1000031C0, symSize: 0x30 }
  - { offsetInCU: 0xF2D8, offset: 0xF2D8, size: 0x8, addend: 0x0, symName: __ZNSt3__122__compressed_pair_elemINS_15__tree_end_nodeIPNS_16__tree_node_baseIPvEEEELi0ELb0EEC2B7v160006ENS_16__value_init_tagE, symObjAddr: 0x5C0, symBinAddr: 0x1000031F0, symSize: 0x20 }
  - { offsetInCU: 0xF30A, offset: 0xF30A, size: 0x8, addend: 0x0, symName: __ZNSt3__122__compressed_pair_elemINS_9allocatorINS_11__tree_nodeINS_12__value_typeINS_12basic_stringIcNS_11char_traitsIcEENS1_IcEEEEiEEPvEEEELi1ELb1EEC2B7v160006ENS_16__value_init_tagE, symObjAddr: 0x5E0, symBinAddr: 0x100003210, symSize: 0x20 }
  - { offsetInCU: 0xF33C, offset: 0xF33C, size: 0x8, addend: 0x0, symName: __ZNSt3__115__tree_end_nodeIPNS_16__tree_node_baseIPvEEEC1B7v160006Ev, symObjAddr: 0x600, symBinAddr: 0x100003230, symSize: 0x20 }
  - { offsetInCU: 0xF364, offset: 0xF364, size: 0x8, addend: 0x0, symName: __ZNSt3__115__tree_end_nodeIPNS_16__tree_node_baseIPvEEEC2B7v160006Ev, symObjAddr: 0x620, symBinAddr: 0x100003250, symSize: 0x20 }
  - { offsetInCU: 0xF38C, offset: 0xF38C, size: 0x8, addend: 0x0, symName: __ZNSt3__19allocatorINS_11__tree_nodeINS_12__value_typeINS_12basic_stringIcNS_11char_traitsIcEENS0_IcEEEEiEEPvEEEC2B7v160006Ev, symObjAddr: 0x640, symBinAddr: 0x100003270, symSize: 0x20 }
  - { offsetInCU: 0xF3B4, offset: 0xF3B4, size: 0x8, addend: 0x0, symName: __ZNSt3__116__non_trivial_ifILb1ENS_9allocatorINS_11__tree_nodeINS_12__value_typeINS_12basic_stringIcNS_11char_traitsIcEENS1_IcEEEEiEEPvEEEEEC2B7v160006Ev, symObjAddr: 0x660, symBinAddr: 0x100003290, symSize: 0x10 }
  - { offsetInCU: 0xF3DC, offset: 0xF3DC, size: 0x8, addend: 0x0, symName: __ZNSt3__117__compressed_pairImNS_19__map_value_compareINS_12basic_stringIcNS_11char_traitsIcEENS_9allocatorIcEEEENS_12__value_typeIS7_iEENS_4lessIS7_EELb1EEEEC2B7v160006IiRKSC_EEOT_OT0_, symObjAddr: 0x670, symBinAddr: 0x1000032A0, symSize: 0x40 }
  - { offsetInCU: 0xF432, offset: 0xF432, size: 0x8, addend: 0x0, symName: __ZNSt3__122__compressed_pair_elemImLi0ELb0EEC2B7v160006IivEEOT_, symObjAddr: 0x6B0, symBinAddr: 0x1000032E0, symSize: 0x20 }
  - { offsetInCU: 0xF472, offset: 0xF472, size: 0x8, addend: 0x0, symName: __ZNSt3__122__compressed_pair_elemINS_19__map_value_compareINS_12basic_stringIcNS_11char_traitsIcEENS_9allocatorIcEEEENS_12__value_typeIS7_iEENS_4lessIS7_EELb1EEELi1ELb1EEC2B7v160006IRKSC_vEEOT_, symObjAddr: 0x6D0, symBinAddr: 0x100003300, symSize: 0x10 }
  - { offsetInCU: 0xF4B2, offset: 0xF4B2, size: 0x8, addend: 0x0, symName: __ZNSt3__114pointer_traitsIPNS_15__tree_end_nodeIPNS_16__tree_node_baseIPvEEEEE10pointer_toB7v160006ERS6_, symObjAddr: 0x6E0, symBinAddr: 0x100003310, symSize: 0x10 }
  - { offsetInCU: 0xF4D5, offset: 0xF4D5, size: 0x8, addend: 0x0, symName: __ZNSt3__117__compressed_pairINS_15__tree_end_nodeIPNS_16__tree_node_baseIPvEEEENS_9allocatorINS_11__tree_nodeINS_12__value_typeINS_12basic_stringIcNS_11char_traitsIcEENS7_IcEEEEiEES3_EEEEE5firstB7v160006Ev, symObjAddr: 0x6F0, symBinAddr: 0x100003320, symSize: 0x20 }
  - { offsetInCU: 0xF4F9, offset: 0xF4F9, size: 0x8, addend: 0x0, symName: __ZNSt3__122__compressed_pair_elemINS_15__tree_end_nodeIPNS_16__tree_node_baseIPvEEEELi0ELb0EE5__getB7v160006Ev, symObjAddr: 0x710, symBinAddr: 0x100003340, symSize: 0x10 }
  - { offsetInCU: 0xF51C, offset: 0xF51C, size: 0x8, addend: 0x0, symName: __ZNSt3__15stackINS_13unordered_setINS_12basic_stringIcNS_11char_traitsIcEENS_9allocatorIcEEEENS_4hashIS7_EENS_8equal_toIS7_EENS5_IS7_EEEENS_5dequeISD_NS5_ISD_EEEEEC2B7v160006Ev, symObjAddr: 0x720, symBinAddr: 0x100003350, symSize: 0x20 }
  - { offsetInCU: 0xF544, offset: 0xF544, size: 0x8, addend: 0x0, symName: __ZNSt3__15dequeINS_13unordered_setINS_12basic_stringIcNS_11char_traitsIcEENS_9allocatorIcEEEENS_4hashIS7_EENS_8equal_toIS7_EENS5_IS7_EEEENS5_ISD_EEEC1B7v160006Ev, symObjAddr: 0x740, symBinAddr: 0x100003370, symSize: 0x20 }
  - { offsetInCU: 0xF56C, offset: 0xF56C, size: 0x8, addend: 0x0, symName: __ZNSt3__15dequeINS_13unordered_setINS_12basic_stringIcNS_11char_traitsIcEENS_9allocatorIcEEEENS_4hashIS7_EENS_8equal_toIS7_EENS5_IS7_EEEENS5_ISD_EEEC2B7v160006Ev, symObjAddr: 0x760, symBinAddr: 0x100003390, symSize: 0x50 }
  - { offsetInCU: 0xF594, offset: 0xF594, size: 0x8, addend: 0x0, symName: __ZNSt3__114__split_bufferIPNS_13unordered_setINS_12basic_stringIcNS_11char_traitsIcEENS_9allocatorIcEEEENS_4hashIS7_EENS_8equal_toIS7_EENS5_IS7_EEEENS5_ISE_EEEC1Ev, symObjAddr: 0x7B0, symBinAddr: 0x1000033E0, symSize: 0x20 }
  - { offsetInCU: 0xF5BE, offset: 0xF5BE, size: 0x8, addend: 0x0, symName: __ZNSt3__117__compressed_pairImNS_9allocatorINS_13unordered_setINS_12basic_stringIcNS_11char_traitsIcEENS1_IcEEEENS_4hashIS7_EENS_8equal_toIS7_EENS1_IS7_EEEEEEEC1B7v160006IiNS_18__default_init_tagEEEOT_OT0_, symObjAddr: 0x7D0, symBinAddr: 0x100003400, symSize: 0x30 }
  - { offsetInCU: 0xF614, offset: 0xF614, size: 0x8, addend: 0x0, symName: __ZNSt3__114__split_bufferIPNS_13unordered_setINS_12basic_stringIcNS_11char_traitsIcEENS_9allocatorIcEEEENS_4hashIS7_EENS_8equal_toIS7_EENS5_IS7_EEEENS5_ISE_EEEC2Ev, symObjAddr: 0x800, symBinAddr: 0x100003430, symSize: 0x60 }
  - { offsetInCU: 0xF643, offset: 0xF643, size: 0x8, addend: 0x0, symName: __ZNSt3__117__compressed_pairIPPNS_13unordered_setINS_12basic_stringIcNS_11char_traitsIcEENS_9allocatorIcEEEENS_4hashIS7_EENS_8equal_toIS7_EENS5_IS7_EEEENS5_ISE_EEEC1B7v160006IDnNS_18__default_init_tagEEEOT_OT0_, symObjAddr: 0x860, symBinAddr: 0x100003490, symSize: 0x30 }
  - { offsetInCU: 0xF699, offset: 0xF699, size: 0x8, addend: 0x0, symName: __ZNSt3__117__compressed_pairIPPNS_13unordered_setINS_12basic_stringIcNS_11char_traitsIcEENS_9allocatorIcEEEENS_4hashIS7_EENS_8equal_toIS7_EENS5_IS7_EEEENS5_ISE_EEEC2B7v160006IDnNS_18__default_init_tagEEEOT_OT0_, symObjAddr: 0x890, symBinAddr: 0x1000034C0, symSize: 0x40 }
  - { offsetInCU: 0xF6EF, offset: 0xF6EF, size: 0x8, addend: 0x0, symName: __ZNSt3__122__compressed_pair_elemIPPNS_13unordered_setINS_12basic_stringIcNS_11char_traitsIcEENS_9allocatorIcEEEENS_4hashIS7_EENS_8equal_toIS7_EENS5_IS7_EEEELi0ELb0EEC2B7v160006IDnvEEOT_, symObjAddr: 0x8D0, symBinAddr: 0x100003500, symSize: 0x20 }
  - { offsetInCU: 0xF72F, offset: 0xF72F, size: 0x8, addend: 0x0, symName: __ZNSt3__122__compressed_pair_elemINS_9allocatorIPNS_13unordered_setINS_12basic_stringIcNS_11char_traitsIcEENS1_IcEEEENS_4hashIS7_EENS_8equal_toIS7_EENS1_IS7_EEEEEELi1ELb1EEC2B7v160006ENS_18__default_init_tagE, symObjAddr: 0x8F0, symBinAddr: 0x100003520, symSize: 0x20 }
  - { offsetInCU: 0xF761, offset: 0xF761, size: 0x8, addend: 0x0, symName: __ZNSt3__19allocatorIPNS_13unordered_setINS_12basic_stringIcNS_11char_traitsIcEENS0_IcEEEENS_4hashIS6_EENS_8equal_toIS6_EENS0_IS6_EEEEEC2B7v160006Ev, symObjAddr: 0x910, symBinAddr: 0x100003540, symSize: 0x20 }
  - { offsetInCU: 0xF789, offset: 0xF789, size: 0x8, addend: 0x0, symName: __ZNSt3__116__non_trivial_ifILb1ENS_9allocatorIPNS_13unordered_setINS_12basic_stringIcNS_11char_traitsIcEENS1_IcEEEENS_4hashIS7_EENS_8equal_toIS7_EENS1_IS7_EEEEEEEC2B7v160006Ev, symObjAddr: 0x930, symBinAddr: 0x100003560, symSize: 0x10 }
  - { offsetInCU: 0xF7B1, offset: 0xF7B1, size: 0x8, addend: 0x0, symName: __ZNSt3__117__compressed_pairImNS_9allocatorINS_13unordered_setINS_12basic_stringIcNS_11char_traitsIcEENS1_IcEEEENS_4hashIS7_EENS_8equal_toIS7_EENS1_IS7_EEEEEEEC2B7v160006IiNS_18__default_init_tagEEEOT_OT0_, symObjAddr: 0x940, symBinAddr: 0x100003570, symSize: 0x40 }
  - { offsetInCU: 0xF807, offset: 0xF807, size: 0x8, addend: 0x0, symName: __ZNSt3__122__compressed_pair_elemINS_9allocatorINS_13unordered_setINS_12basic_stringIcNS_11char_traitsIcEENS1_IcEEEENS_4hashIS7_EENS_8equal_toIS7_EENS1_IS7_EEEEEELi1ELb1EEC2B7v160006ENS_18__default_init_tagE, symObjAddr: 0x980, symBinAddr: 0x1000035B0, symSize: 0x20 }
  - { offsetInCU: 0xF839, offset: 0xF839, size: 0x8, addend: 0x0, symName: __ZNSt3__19allocatorINS_13unordered_setINS_12basic_stringIcNS_11char_traitsIcEENS0_IcEEEENS_4hashIS6_EENS_8equal_toIS6_EENS0_IS6_EEEEEC2B7v160006Ev, symObjAddr: 0x9A0, symBinAddr: 0x1000035D0, symSize: 0x20 }
  - { offsetInCU: 0xF861, offset: 0xF861, size: 0x8, addend: 0x0, symName: __ZNSt3__116__non_trivial_ifILb1ENS_9allocatorINS_13unordered_setINS_12basic_stringIcNS_11char_traitsIcEENS1_IcEEEENS_4hashIS7_EENS_8equal_toIS7_EENS1_IS7_EEEEEEEC2B7v160006Ev, symObjAddr: 0x9C0, symBinAddr: 0x1000035F0, symSize: 0x10 }
  - { offsetInCU: 0xF889, offset: 0xF889, size: 0x8, addend: 0x0, symName: __ZNSt3__16vectorINS0_INS_12basic_stringIcNS_11char_traitsIcEENS_9allocatorIcEEEENS4_IS6_EEEENS4_IS8_EEEC2B7v160006Ev, symObjAddr: 0x9D0, symBinAddr: 0x100003600, symSize: 0x60 }
  - { offsetInCU: 0xF8B1, offset: 0xF8B1, size: 0x8, addend: 0x0, symName: __ZNSt3__117__compressed_pairIPNS_6vectorINS_12basic_stringIcNS_11char_traitsIcEENS_9allocatorIcEEEENS5_IS7_EEEENS5_IS9_EEEC1B7v160006IDnNS_18__default_init_tagEEEOT_OT0_, symObjAddr: 0xA30, symBinAddr: 0x100003660, symSize: 0x30 }
  - { offsetInCU: 0xF907, offset: 0xF907, size: 0x8, addend: 0x0, symName: __ZNSt3__117__compressed_pairIPNS_6vectorINS_12basic_stringIcNS_11char_traitsIcEENS_9allocatorIcEEEENS5_IS7_EEEENS5_IS9_EEEC2B7v160006IDnNS_18__default_init_tagEEEOT_OT0_, symObjAddr: 0xA70, symBinAddr: 0x1000036A0, symSize: 0x40 }
  - { offsetInCU: 0xF95D, offset: 0xF95D, size: 0x8, addend: 0x0, symName: __ZNSt3__122__compressed_pair_elemIPNS_6vectorINS_12basic_stringIcNS_11char_traitsIcEENS_9allocatorIcEEEENS5_IS7_EEEELi0ELb0EEC2B7v160006IDnvEEOT_, symObjAddr: 0xAB0, symBinAddr: 0x1000036E0, symSize: 0x20 }
  - { offsetInCU: 0xF99D, offset: 0xF99D, size: 0x8, addend: 0x0, symName: __ZNSt3__122__compressed_pair_elemINS_9allocatorINS_6vectorINS_12basic_stringIcNS_11char_traitsIcEENS1_IcEEEENS1_IS7_EEEEEELi1ELb1EEC2B7v160006ENS_18__default_init_tagE, symObjAddr: 0xAD0, symBinAddr: 0x100003700, symSize: 0x20 }
  - { offsetInCU: 0xF9CF, offset: 0xF9CF, size: 0x8, addend: 0x0, symName: __ZNSt3__19allocatorINS_6vectorINS_12basic_stringIcNS_11char_traitsIcEENS0_IcEEEENS0_IS6_EEEEEC2B7v160006Ev, symObjAddr: 0xAF0, symBinAddr: 0x100003720, symSize: 0x20 }
  - { offsetInCU: 0xF9F7, offset: 0xF9F7, size: 0x8, addend: 0x0, symName: __ZNSt3__116__non_trivial_ifILb1ENS_9allocatorINS_6vectorINS_12basic_stringIcNS_11char_traitsIcEENS1_IcEEEENS1_IS7_EEEEEEEC2B7v160006Ev, symObjAddr: 0xB10, symBinAddr: 0x100003740, symSize: 0x10 }
  - { offsetInCU: 0xFA1F, offset: 0xFA1F, size: 0x8, addend: 0x0, symName: __ZN6ParserD2Ev, symObjAddr: 0xB20, symBinAddr: 0x100003750, symSize: 0x40 }
  - { offsetInCU: 0xFA49, offset: 0xFA49, size: 0x8, addend: 0x0, symName: __ZNSt3__16vectorINS0_INS_12basic_stringIcNS_11char_traitsIcEENS_9allocatorIcEEEENS4_IS6_EEEENS4_IS8_EEED1B7v160006Ev, symObjAddr: 0xB60, symBinAddr: 0x100003790, symSize: 0x20 }
  - { offsetInCU: 0xFA71, offset: 0xFA71, size: 0x8, addend: 0x0, symName: __ZN9VariablesD1Ev, symObjAddr: 0xB80, symBinAddr: 0x1000037B0, symSize: 0x20 }
  - { offsetInCU: 0xFA9B, offset: 0xFA9B, size: 0x8, addend: 0x0, symName: __ZNSt3__16vectorINS0_INS_12basic_stringIcNS_11char_traitsIcEENS_9allocatorIcEEEENS4_IS6_EEEENS4_IS8_EEED2B7v160006Ev, symObjAddr: 0xBA0, symBinAddr: 0x1000037D0, symSize: 0x40 }
  - { offsetInCU: 0xFAC3, offset: 0xFAC3, size: 0x8, addend: 0x0, symName: __ZNSt3__16vectorINS0_INS_12basic_stringIcNS_11char_traitsIcEENS_9allocatorIcEEEENS4_IS6_EEEENS4_IS8_EEE16__destroy_vectorC1ERSA_, symObjAddr: 0xBE0, symBinAddr: 0x100003810, symSize: 0x30 }
  - { offsetInCU: 0xFAFB, offset: 0xFAFB, size: 0x8, addend: 0x0, symName: __ZNSt3__16vectorINS0_INS_12basic_stringIcNS_11char_traitsIcEENS_9allocatorIcEEEENS4_IS6_EEEENS4_IS8_EEE16__destroy_vectorclB7v160006Ev, symObjAddr: 0xC10, symBinAddr: 0x100003840, symSize: 0x90 }
  - { offsetInCU: 0xFB1E, offset: 0xFB1E, size: 0x8, addend: 0x0, symName: __ZNSt3__16vectorINS0_INS_12basic_stringIcNS_11char_traitsIcEENS_9allocatorIcEEEENS4_IS6_EEEENS4_IS8_EEE16__destroy_vectorC2ERSA_, symObjAddr: 0xCA0, symBinAddr: 0x1000038D0, symSize: 0x20 }
  - { offsetInCU: 0xFB56, offset: 0xFB56, size: 0x8, addend: 0x0, symName: __ZNKSt3__16vectorINS0_INS_12basic_stringIcNS_11char_traitsIcEENS_9allocatorIcEEEENS4_IS6_EEEENS4_IS8_EEE17__annotate_deleteB7v160006Ev, symObjAddr: 0xCC0, symBinAddr: 0x1000038F0, symSize: 0xB0 }
  - { offsetInCU: 0xFB7A, offset: 0xFB7A, size: 0x8, addend: 0x0, symName: __ZNSt3__16vectorINS0_INS_12basic_stringIcNS_11char_traitsIcEENS_9allocatorIcEEEENS4_IS6_EEEENS4_IS8_EEE7__clearB7v160006Ev, symObjAddr: 0xD80, symBinAddr: 0x1000039B0, symSize: 0x20 }
  - { offsetInCU: 0xFB9D, offset: 0xFB9D, size: 0x8, addend: 0x0, symName: __ZNSt3__116allocator_traitsINS_9allocatorINS_6vectorINS_12basic_stringIcNS_11char_traitsIcEENS1_IcEEEENS1_IS7_EEEEEEE10deallocateB7v160006ERSA_PS9_m, symObjAddr: 0xDA0, symBinAddr: 0x1000039D0, symSize: 0x30 }
  - { offsetInCU: 0xFBDF, offset: 0xFBDF, size: 0x8, addend: 0x0, symName: __ZNSt3__16vectorINS0_INS_12basic_stringIcNS_11char_traitsIcEENS_9allocatorIcEEEENS4_IS6_EEEENS4_IS8_EEE7__allocB7v160006Ev, symObjAddr: 0xDD0, symBinAddr: 0x100003A00, symSize: 0x20 }
  - { offsetInCU: 0xFC03, offset: 0xFC03, size: 0x8, addend: 0x0, symName: __ZNKSt3__16vectorINS0_INS_12basic_stringIcNS_11char_traitsIcEENS_9allocatorIcEEEENS4_IS6_EEEENS4_IS8_EEE8capacityB7v160006Ev, symObjAddr: 0xDF0, symBinAddr: 0x100003A20, symSize: 0x40 }
  - { offsetInCU: 0xFC27, offset: 0xFC27, size: 0x8, addend: 0x0, symName: __ZNKSt3__16vectorINS0_INS_12basic_stringIcNS_11char_traitsIcEENS_9allocatorIcEEEENS4_IS6_EEEENS4_IS8_EEE31__annotate_contiguous_containerB7v160006EPKvSC_SC_SC_, symObjAddr: 0xE30, symBinAddr: 0x100003A60, symSize: 0x20 }
  - { offsetInCU: 0xFC7B, offset: 0xFC7B, size: 0x8, addend: 0x0, symName: __ZNKSt3__16vectorINS0_INS_12basic_stringIcNS_11char_traitsIcEENS_9allocatorIcEEEENS4_IS6_EEEENS4_IS8_EEE4dataB7v160006Ev, symObjAddr: 0xE50, symBinAddr: 0x100003A80, symSize: 0x20 }
  - { offsetInCU: 0xFC9F, offset: 0xFC9F, size: 0x8, addend: 0x0, symName: __ZNKSt3__16vectorINS0_INS_12basic_stringIcNS_11char_traitsIcEENS_9allocatorIcEEEENS4_IS6_EEEENS4_IS8_EEE4sizeB7v160006Ev, symObjAddr: 0xE70, symBinAddr: 0x100003AA0, symSize: 0x30 }
  - { offsetInCU: 0xFCC3, offset: 0xFCC3, size: 0x8, addend: 0x0, symName: __ZNSt3__16vectorINS0_INS_12basic_stringIcNS_11char_traitsIcEENS_9allocatorIcEEEENS4_IS6_EEEENS4_IS8_EEE22__base_destruct_at_endB7v160006EPS8_, symObjAddr: 0xEB0, symBinAddr: 0x100003AE0, symSize: 0x80 }
  - { offsetInCU: 0xFD04, offset: 0xFD04, size: 0x8, addend: 0x0, symName: __ZNSt3__116allocator_traitsINS_9allocatorINS_6vectorINS_12basic_stringIcNS_11char_traitsIcEENS1_IcEEEENS1_IS7_EEEEEEE7destroyB7v160006IS9_vvEEvRSA_PT_, symObjAddr: 0xF30, symBinAddr: 0x100003B60, symSize: 0x20 }
  - { offsetInCU: 0xFD3E, offset: 0xFD3E, size: 0x8, addend: 0x0, symName: __ZNSt3__16vectorINS_12basic_stringIcNS_11char_traitsIcEENS_9allocatorIcEEEENS4_IS6_EEED1B7v160006Ev, symObjAddr: 0xF90, symBinAddr: 0x100003BC0, symSize: 0x20 }
  - { offsetInCU: 0xFD66, offset: 0xFD66, size: 0x8, addend: 0x0, symName: __ZNSt3__16vectorINS_12basic_stringIcNS_11char_traitsIcEENS_9allocatorIcEEEENS4_IS6_EEED2B7v160006Ev, symObjAddr: 0xFB0, symBinAddr: 0x100003BE0, symSize: 0x40 }
  - { offsetInCU: 0xFD8E, offset: 0xFD8E, size: 0x8, addend: 0x0, symName: __ZNSt3__16vectorINS_12basic_stringIcNS_11char_traitsIcEENS_9allocatorIcEEEENS4_IS6_EEE16__destroy_vectorC1ERS8_, symObjAddr: 0xFF0, symBinAddr: 0x100003C20, symSize: 0x30 }
  - { offsetInCU: 0xFDC6, offset: 0xFDC6, size: 0x8, addend: 0x0, symName: __ZNSt3__16vectorINS_12basic_stringIcNS_11char_traitsIcEENS_9allocatorIcEEEENS4_IS6_EEE16__destroy_vectorclB7v160006Ev, symObjAddr: 0x1020, symBinAddr: 0x100003C50, symSize: 0x90 }
  - { offsetInCU: 0xFDE9, offset: 0xFDE9, size: 0x8, addend: 0x0, symName: __ZNSt3__16vectorINS_12basic_stringIcNS_11char_traitsIcEENS_9allocatorIcEEEENS4_IS6_EEE16__destroy_vectorC2ERS8_, symObjAddr: 0x10B0, symBinAddr: 0x100003CE0, symSize: 0x20 }
  - { offsetInCU: 0xFE21, offset: 0xFE21, size: 0x8, addend: 0x0, symName: __ZNKSt3__16vectorINS_12basic_stringIcNS_11char_traitsIcEENS_9allocatorIcEEEENS4_IS6_EEE17__annotate_deleteB7v160006Ev, symObjAddr: 0x10D0, symBinAddr: 0x100003D00, symSize: 0xB0 }
  - { offsetInCU: 0xFE45, offset: 0xFE45, size: 0x8, addend: 0x0, symName: __ZNSt3__16vectorINS_12basic_stringIcNS_11char_traitsIcEENS_9allocatorIcEEEENS4_IS6_EEE7__clearB7v160006Ev, symObjAddr: 0x1190, symBinAddr: 0x100003DC0, symSize: 0x20 }
  - { offsetInCU: 0xFE68, offset: 0xFE68, size: 0x8, addend: 0x0, symName: __ZNSt3__116allocator_traitsINS_9allocatorINS_12basic_stringIcNS_11char_traitsIcEENS1_IcEEEEEEE10deallocateB7v160006ERS7_PS6_m, symObjAddr: 0x11B0, symBinAddr: 0x100003DE0, symSize: 0x30 }
  - { offsetInCU: 0xFEAA, offset: 0xFEAA, size: 0x8, addend: 0x0, symName: __ZNSt3__16vectorINS_12basic_stringIcNS_11char_traitsIcEENS_9allocatorIcEEEENS4_IS6_EEE7__allocB7v160006Ev, symObjAddr: 0x11E0, symBinAddr: 0x100003E10, symSize: 0x20 }
  - { offsetInCU: 0xFECE, offset: 0xFECE, size: 0x8, addend: 0x0, symName: __ZNKSt3__16vectorINS_12basic_stringIcNS_11char_traitsIcEENS_9allocatorIcEEEENS4_IS6_EEE8capacityB7v160006Ev, symObjAddr: 0x1200, symBinAddr: 0x100003E30, symSize: 0x40 }
  - { offsetInCU: 0xFEF2, offset: 0xFEF2, size: 0x8, addend: 0x0, symName: __ZNKSt3__16vectorINS_12basic_stringIcNS_11char_traitsIcEENS_9allocatorIcEEEENS4_IS6_EEE31__annotate_contiguous_containerB7v160006EPKvSA_SA_SA_, symObjAddr: 0x1240, symBinAddr: 0x100003E70, symSize: 0x20 }
  - { offsetInCU: 0xFF46, offset: 0xFF46, size: 0x8, addend: 0x0, symName: __ZNKSt3__16vectorINS_12basic_stringIcNS_11char_traitsIcEENS_9allocatorIcEEEENS4_IS6_EEE4dataB7v160006Ev, symObjAddr: 0x1260, symBinAddr: 0x100003E90, symSize: 0x20 }
  - { offsetInCU: 0xFF6A, offset: 0xFF6A, size: 0x8, addend: 0x0, symName: __ZNKSt3__16vectorINS_12basic_stringIcNS_11char_traitsIcEENS_9allocatorIcEEEENS4_IS6_EEE4sizeB7v160006Ev, symObjAddr: 0x1280, symBinAddr: 0x100003EB0, symSize: 0x30 }
  - { offsetInCU: 0xFF8E, offset: 0xFF8E, size: 0x8, addend: 0x0, symName: __ZNSt3__16vectorINS_12basic_stringIcNS_11char_traitsIcEENS_9allocatorIcEEEENS4_IS6_EEE22__base_destruct_at_endB7v160006EPS6_, symObjAddr: 0x12C0, symBinAddr: 0x100003EF0, symSize: 0x80 }
  - { offsetInCU: 0xFFCF, offset: 0xFFCF, size: 0x8, addend: 0x0, symName: __ZNSt3__116allocator_traitsINS_9allocatorINS_12basic_stringIcNS_11char_traitsIcEENS1_IcEEEEEEE7destroyB7v160006IS6_vvEEvRS7_PT_, symObjAddr: 0x1340, symBinAddr: 0x100003F70, symSize: 0x20 }
  - { offsetInCU: 0x1000A, offset: 0x1000A, size: 0x8, addend: 0x0, symName: __ZNSt3__19allocatorINS_12basic_stringIcNS_11char_traitsIcEENS0_IcEEEEE10deallocateB7v160006EPS5_m, symObjAddr: 0x13A0, symBinAddr: 0x100003FD0, symSize: 0x50 }
  - { offsetInCU: 0x1004A, offset: 0x1004A, size: 0x8, addend: 0x0, symName: __ZNSt3__117__compressed_pairIPNS_12basic_stringIcNS_11char_traitsIcEENS_9allocatorIcEEEENS4_IS6_EEE6secondB7v160006Ev, symObjAddr: 0x1510, symBinAddr: 0x100004140, symSize: 0x20 }
  - { offsetInCU: 0x1006E, offset: 0x1006E, size: 0x8, addend: 0x0, symName: __ZNSt3__122__compressed_pair_elemINS_9allocatorINS_12basic_stringIcNS_11char_traitsIcEENS1_IcEEEEEELi1ELb1EE5__getB7v160006Ev, symObjAddr: 0x1530, symBinAddr: 0x100004160, symSize: 0x10 }
  - { offsetInCU: 0x10092, offset: 0x10092, size: 0x8, addend: 0x0, symName: __ZNKSt3__16vectorINS_12basic_stringIcNS_11char_traitsIcEENS_9allocatorIcEEEENS4_IS6_EEE9__end_capB7v160006Ev, symObjAddr: 0x1540, symBinAddr: 0x100004170, symSize: 0x20 }
  - { offsetInCU: 0x100B6, offset: 0x100B6, size: 0x8, addend: 0x0, symName: __ZNKSt3__117__compressed_pairIPNS_12basic_stringIcNS_11char_traitsIcEENS_9allocatorIcEEEENS4_IS6_EEE5firstB7v160006Ev, symObjAddr: 0x1560, symBinAddr: 0x100004190, symSize: 0x20 }
  - { offsetInCU: 0x100DA, offset: 0x100DA, size: 0x8, addend: 0x0, symName: __ZNKSt3__122__compressed_pair_elemIPNS_12basic_stringIcNS_11char_traitsIcEENS_9allocatorIcEEEELi0ELb0EE5__getB7v160006Ev, symObjAddr: 0x1580, symBinAddr: 0x1000041B0, symSize: 0x10 }
  - { offsetInCU: 0x100FE, offset: 0x100FE, size: 0x8, addend: 0x0, symName: __ZNSt3__19allocatorINS_6vectorINS_12basic_stringIcNS_11char_traitsIcEENS0_IcEEEENS0_IS6_EEEEE10deallocateB7v160006EPS8_m, symObjAddr: 0x1590, symBinAddr: 0x1000041C0, symSize: 0x50 }
  - { offsetInCU: 0x1013E, offset: 0x1013E, size: 0x8, addend: 0x0, symName: __ZNSt3__117__compressed_pairIPNS_6vectorINS_12basic_stringIcNS_11char_traitsIcEENS_9allocatorIcEEEENS5_IS7_EEEENS5_IS9_EEE6secondB7v160006Ev, symObjAddr: 0x15E0, symBinAddr: 0x100004210, symSize: 0x20 }
  - { offsetInCU: 0x10162, offset: 0x10162, size: 0x8, addend: 0x0, symName: __ZNSt3__122__compressed_pair_elemINS_9allocatorINS_6vectorINS_12basic_stringIcNS_11char_traitsIcEENS1_IcEEEENS1_IS7_EEEEEELi1ELb1EE5__getB7v160006Ev, symObjAddr: 0x1600, symBinAddr: 0x100004230, symSize: 0x10 }
  - { offsetInCU: 0x10186, offset: 0x10186, size: 0x8, addend: 0x0, symName: __ZNKSt3__16vectorINS0_INS_12basic_stringIcNS_11char_traitsIcEENS_9allocatorIcEEEENS4_IS6_EEEENS4_IS8_EEE9__end_capB7v160006Ev, symObjAddr: 0x1610, symBinAddr: 0x100004240, symSize: 0x20 }
  - { offsetInCU: 0x101AA, offset: 0x101AA, size: 0x8, addend: 0x0, symName: __ZNKSt3__117__compressed_pairIPNS_6vectorINS_12basic_stringIcNS_11char_traitsIcEENS_9allocatorIcEEEENS5_IS7_EEEENS5_IS9_EEE5firstB7v160006Ev, symObjAddr: 0x1630, symBinAddr: 0x100004260, symSize: 0x20 }
  - { offsetInCU: 0x101CE, offset: 0x101CE, size: 0x8, addend: 0x0, symName: __ZNKSt3__122__compressed_pair_elemIPNS_6vectorINS_12basic_stringIcNS_11char_traitsIcEENS_9allocatorIcEEEENS5_IS7_EEEELi0ELb0EE5__getB7v160006Ev, symObjAddr: 0x1650, symBinAddr: 0x100004280, symSize: 0x10 }
  - { offsetInCU: 0x101F1, offset: 0x101F1, size: 0x8, addend: 0x0, symName: __ZN9VariablesD2Ev, symObjAddr: 0x1660, symBinAddr: 0x100004290, symSize: 0x30 }
  - { offsetInCU: 0x1021B, offset: 0x1021B, size: 0x8, addend: 0x0, symName: __ZNSt3__15stackINS_13unordered_setINS_12basic_stringIcNS_11char_traitsIcEENS_9allocatorIcEEEENS_4hashIS7_EENS_8equal_toIS7_EENS5_IS7_EEEENS_5dequeISD_NS5_ISD_EEEEED1Ev, symObjAddr: 0x1690, symBinAddr: 0x1000042C0, symSize: 0x20 }
  - { offsetInCU: 0x10245, offset: 0x10245, size: 0x8, addend: 0x0, symName: __ZNSt3__13mapINS_12basic_stringIcNS_11char_traitsIcEENS_9allocatorIcEEEEiNS_4lessIS6_EENS4_INS_4pairIKS6_iEEEEED1B7v160006Ev, symObjAddr: 0x16B0, symBinAddr: 0x1000042E0, symSize: 0x20 }
  - { offsetInCU: 0x1026D, offset: 0x1026D, size: 0x8, addend: 0x0, symName: __ZNSt3__15stackINS_13unordered_setINS_12basic_stringIcNS_11char_traitsIcEENS_9allocatorIcEEEENS_4hashIS7_EENS_8equal_toIS7_EENS5_IS7_EEEENS_5dequeISD_NS5_ISD_EEEEED2Ev, symObjAddr: 0x16D0, symBinAddr: 0x100004300, symSize: 0x20 }
  - { offsetInCU: 0x10297, offset: 0x10297, size: 0x8, addend: 0x0, symName: __ZNSt3__15dequeINS_13unordered_setINS_12basic_stringIcNS_11char_traitsIcEENS_9allocatorIcEEEENS_4hashIS7_EENS_8equal_toIS7_EENS5_IS7_EEEENS5_ISD_EEED1B7v160006Ev, symObjAddr: 0x16F0, symBinAddr: 0x100004320, symSize: 0x20 }
  - { offsetInCU: 0x102BF, offset: 0x102BF, size: 0x8, addend: 0x0, symName: __ZNSt3__15dequeINS_13unordered_setINS_12basic_stringIcNS_11char_traitsIcEENS_9allocatorIcEEEENS_4hashIS7_EENS_8equal_toIS7_EENS5_IS7_EEEENS5_ISD_EEED2B7v160006Ev, symObjAddr: 0x1710, symBinAddr: 0x100004340, symSize: 0x80 }
  - { offsetInCU: 0x10314, offset: 0x10314, size: 0x8, addend: 0x0, symName: __ZNSt3__15dequeINS_13unordered_setINS_12basic_stringIcNS_11char_traitsIcEENS_9allocatorIcEEEENS_4hashIS7_EENS_8equal_toIS7_EENS5_IS7_EEEENS5_ISD_EEE5clearEv, symObjAddr: 0x1790, symBinAddr: 0x1000043C0, symSize: 0x180 }
  - { offsetInCU: 0x1036F, offset: 0x1036F, size: 0x8, addend: 0x0, symName: __ZNSt3__114__split_bufferIPNS_13unordered_setINS_12basic_stringIcNS_11char_traitsIcEENS_9allocatorIcEEEENS_4hashIS7_EENS_8equal_toIS7_EENS5_IS7_EEEENS5_ISE_EEE5beginB7v160006Ev, symObjAddr: 0x1910, symBinAddr: 0x100004540, symSize: 0x20 }
  - { offsetInCU: 0x10393, offset: 0x10393, size: 0x8, addend: 0x0, symName: __ZNSt3__114__split_bufferIPNS_13unordered_setINS_12basic_stringIcNS_11char_traitsIcEENS_9allocatorIcEEEENS_4hashIS7_EENS_8equal_toIS7_EENS5_IS7_EEEENS5_ISE_EEE3endB7v160006Ev, symObjAddr: 0x1930, symBinAddr: 0x100004560, symSize: 0x20 }
  - { offsetInCU: 0x103B6, offset: 0x103B6, size: 0x8, addend: 0x0, symName: __ZNSt3__116allocator_traitsINS_9allocatorINS_13unordered_setINS_12basic_stringIcNS_11char_traitsIcEENS1_IcEEEENS_4hashIS7_EENS_8equal_toIS7_EENS1_IS7_EEEEEEE10deallocateB7v160006ERSE_PSD_m, symObjAddr: 0x1950, symBinAddr: 0x100004580, symSize: 0x30 }
  - { offsetInCU: 0x103F8, offset: 0x103F8, size: 0x8, addend: 0x0, symName: __ZNSt3__15dequeINS_13unordered_setINS_12basic_stringIcNS_11char_traitsIcEENS_9allocatorIcEEEENS_4hashIS7_EENS_8equal_toIS7_EENS5_IS7_EEEENS5_ISD_EEE7__allocB7v160006Ev, symObjAddr: 0x1980, symBinAddr: 0x1000045B0, symSize: 0x20 }
  - { offsetInCU: 0x1041B, offset: 0x1041B, size: 0x8, addend: 0x0, symName: __ZNSt3__114__split_bufferIPNS_13unordered_setINS_12basic_stringIcNS_11char_traitsIcEENS_9allocatorIcEEEENS_4hashIS7_EENS_8equal_toIS7_EENS5_IS7_EEEENS5_ISE_EEED1Ev, symObjAddr: 0x19A0, symBinAddr: 0x1000045D0, symSize: 0x20 }
  - { offsetInCU: 0x10446, offset: 0x10446, size: 0x8, addend: 0x0, symName: __ZNSt3__15dequeINS_13unordered_setINS_12basic_stringIcNS_11char_traitsIcEENS_9allocatorIcEEEENS_4hashIS7_EENS_8equal_toIS7_EENS5_IS7_EEEENS5_ISD_EEE5beginB7v160006Ev, symObjAddr: 0x19C0, symBinAddr: 0x1000045F0, symSize: 0xD0 }
  - { offsetInCU: 0x10479, offset: 0x10479, size: 0x8, addend: 0x0, symName: __ZNSt3__15dequeINS_13unordered_setINS_12basic_stringIcNS_11char_traitsIcEENS_9allocatorIcEEEENS_4hashIS7_EENS_8equal_toIS7_EENS5_IS7_EEEENS5_ISD_EEE3endB7v160006Ev, symObjAddr: 0x1A90, symBinAddr: 0x1000046C0, symSize: 0xC0 }
  - { offsetInCU: 0x104BA, offset: 0x104BA, size: 0x8, addend: 0x0, symName: __ZNSt3__116allocator_traitsINS_9allocatorINS_13unordered_setINS_12basic_stringIcNS_11char_traitsIcEENS1_IcEEEENS_4hashIS7_EENS_8equal_toIS7_EENS1_IS7_EEEEEEE7destroyB7v160006ISD_vvEEvRSE_PT_, symObjAddr: 0x1B80, symBinAddr: 0x1000047B0, symSize: 0x20 }
  - { offsetInCU: 0x104F5, offset: 0x104F5, size: 0x8, addend: 0x0, symName: __ZNKSt3__116__deque_iteratorINS_13unordered_setINS_12basic_stringIcNS_11char_traitsIcEENS_9allocatorIcEEEENS_4hashIS7_EENS_8equal_toIS7_EENS5_IS7_EEEEPSD_RSD_PSE_lLl102EEdeB7v160006Ev, symObjAddr: 0x1BA0, symBinAddr: 0x1000047D0, symSize: 0x20 }
  - { offsetInCU: 0x10519, offset: 0x10519, size: 0x8, addend: 0x0, symName: __ZNSt3__116__deque_iteratorINS_13unordered_setINS_12basic_stringIcNS_11char_traitsIcEENS_9allocatorIcEEEENS_4hashIS7_EENS_8equal_toIS7_EENS5_IS7_EEEEPSD_RSD_PSE_lLl102EEppB7v160006Ev, symObjAddr: 0x1BC0, symBinAddr: 0x1000047F0, symSize: 0x60 }
  - { offsetInCU: 0x1053D, offset: 0x1053D, size: 0x8, addend: 0x0, symName: __ZNSt3__15dequeINS_13unordered_setINS_12basic_stringIcNS_11char_traitsIcEENS_9allocatorIcEEEENS_4hashIS7_EENS_8equal_toIS7_EENS5_IS7_EEEENS5_ISD_EEE6__sizeB7v160006Ev, symObjAddr: 0x1C20, symBinAddr: 0x100004850, symSize: 0x20 }
  - { offsetInCU: 0x10561, offset: 0x10561, size: 0x8, addend: 0x0, symName: __ZNKSt3__114__split_bufferIPNS_13unordered_setINS_12basic_stringIcNS_11char_traitsIcEENS_9allocatorIcEEEENS_4hashIS7_EENS_8equal_toIS7_EENS5_IS7_EEEENS5_ISE_EEE4sizeB7v160006Ev, symObjAddr: 0x1C40, symBinAddr: 0x100004870, symSize: 0x20 }
  - { offsetInCU: 0x10585, offset: 0x10585, size: 0x8, addend: 0x0, symName: __ZNSt3__114__split_bufferIPNS_13unordered_setINS_12basic_stringIcNS_11char_traitsIcEENS_9allocatorIcEEEENS_4hashIS7_EENS_8equal_toIS7_EENS5_IS7_EEEENS5_ISE_EEE5frontB7v160006Ev, symObjAddr: 0x1C60, symBinAddr: 0x100004890, symSize: 0x20 }
  - { offsetInCU: 0x105A9, offset: 0x105A9, size: 0x8, addend: 0x0, symName: __ZNSt3__114__split_bufferIPNS_13unordered_setINS_12basic_stringIcNS_11char_traitsIcEENS_9allocatorIcEEEENS_4hashIS7_EENS_8equal_toIS7_EENS5_IS7_EEEENS5_ISE_EEE9pop_frontB7v160006Ev, symObjAddr: 0x1C80, symBinAddr: 0x1000048B0, symSize: 0x30 }
  - { offsetInCU: 0x105CD, offset: 0x105CD, size: 0x8, addend: 0x0, symName: __ZNKSt3__114__split_bufferIPNS_13unordered_setINS_12basic_stringIcNS_11char_traitsIcEENS_9allocatorIcEEEENS_4hashIS7_EENS_8equal_toIS7_EENS5_IS7_EEEENS5_ISE_EEE5emptyB7v160006Ev, symObjAddr: 0x1CB0, symBinAddr: 0x1000048E0, symSize: 0x20 }
  - { offsetInCU: 0x105F0, offset: 0x105F0, size: 0x8, addend: 0x0, symName: __ZNSt3__116__deque_iteratorINS_13unordered_setINS_12basic_stringIcNS_11char_traitsIcEENS_9allocatorIcEEEENS_4hashIS7_EENS_8equal_toIS7_EENS5_IS7_EEEEPSD_RSD_PSE_lLl102EEC1B7v160006ESG_SE_, symObjAddr: 0x1CD0, symBinAddr: 0x100004900, symSize: 0x30 }
  - { offsetInCU: 0x10636, offset: 0x10636, size: 0x8, addend: 0x0, symName: __ZNSt3__116__deque_iteratorINS_13unordered_setINS_12basic_stringIcNS_11char_traitsIcEENS_9allocatorIcEEEENS_4hashIS7_EENS_8equal_toIS7_EENS5_IS7_EEEEPSD_RSD_PSE_lLl102EEC2B7v160006ESG_SE_, symObjAddr: 0x1D00, symBinAddr: 0x100004930, symSize: 0x30 }
  - { offsetInCU: 0x1067D, offset: 0x1067D, size: 0x8, addend: 0x0, symName: __ZNKSt3__15dequeINS_13unordered_setINS_12basic_stringIcNS_11char_traitsIcEENS_9allocatorIcEEEENS_4hashIS7_EENS_8equal_toIS7_EENS5_IS7_EEEENS5_ISD_EEE4sizeB7v160006Ev, symObjAddr: 0x1D30, symBinAddr: 0x100004960, symSize: 0x20 }
  - { offsetInCU: 0x106A1, offset: 0x106A1, size: 0x8, addend: 0x0, symName: __ZNKSt3__15dequeINS_13unordered_setINS_12basic_stringIcNS_11char_traitsIcEENS_9allocatorIcEEEENS_4hashIS7_EENS_8equal_toIS7_EENS5_IS7_EEEENS5_ISD_EEE6__sizeB7v160006Ev, symObjAddr: 0x1D50, symBinAddr: 0x100004980, symSize: 0x20 }
  - { offsetInCU: 0x106C5, offset: 0x106C5, size: 0x8, addend: 0x0, symName: __ZNKSt3__117__compressed_pairImNS_9allocatorINS_13unordered_setINS_12basic_stringIcNS_11char_traitsIcEENS1_IcEEEENS_4hashIS7_EENS_8equal_toIS7_EENS1_IS7_EEEEEEE5firstB7v160006Ev, symObjAddr: 0x1D70, symBinAddr: 0x1000049A0, symSize: 0x20 }
  - { offsetInCU: 0x106E9, offset: 0x106E9, size: 0x8, addend: 0x0, symName: __ZNKSt3__122__compressed_pair_elemImLi0ELb0EE5__getB7v160006Ev, symObjAddr: 0x1D90, symBinAddr: 0x1000049C0, symSize: 0x10 }
  - { offsetInCU: 0x1070C, offset: 0x1070C, size: 0x8, addend: 0x0, symName: __ZNSt3__113unordered_setINS_12basic_stringIcNS_11char_traitsIcEENS_9allocatorIcEEEENS_4hashIS6_EENS_8equal_toIS6_EENS4_IS6_EEED1B7v160006Ev, symObjAddr: 0x1E10, symBinAddr: 0x100004A40, symSize: 0x20 }
  - { offsetInCU: 0x10734, offset: 0x10734, size: 0x8, addend: 0x0, symName: __ZNSt3__113unordered_setINS_12basic_stringIcNS_11char_traitsIcEENS_9allocatorIcEEEENS_4hashIS6_EENS_8equal_toIS6_EENS4_IS6_EEED2B7v160006Ev, symObjAddr: 0x1E30, symBinAddr: 0x100004A60, symSize: 0x20 }
  - { offsetInCU: 0x1075C, offset: 0x1075C, size: 0x8, addend: 0x0, symName: __ZNSt3__112__hash_tableINS_12basic_stringIcNS_11char_traitsIcEENS_9allocatorIcEEEENS_4hashIS6_EENS_8equal_toIS6_EENS4_IS6_EEED1Ev, symObjAddr: 0x1E50, symBinAddr: 0x100004A80, symSize: 0x20 }
  - { offsetInCU: 0x10786, offset: 0x10786, size: 0x8, addend: 0x0, symName: __ZNSt3__112__hash_tableINS_12basic_stringIcNS_11char_traitsIcEENS_9allocatorIcEEEENS_4hashIS6_EENS_8equal_toIS6_EENS4_IS6_EEED2Ev, symObjAddr: 0x1E70, symBinAddr: 0x100004AA0, symSize: 0x50 }
  - { offsetInCU: 0x107B1, offset: 0x107B1, size: 0x8, addend: 0x0, symName: __ZNSt3__112__hash_tableINS_12basic_stringIcNS_11char_traitsIcEENS_9allocatorIcEEEENS_4hashIS6_EENS_8equal_toIS6_EENS4_IS6_EEE17__deallocate_nodeEPNS_16__hash_node_baseIPNS_11__hash_nodeIS6_PvEEEE, symObjAddr: 0x1EC0, symBinAddr: 0x100004AF0, symSize: 0xA0 }
  - { offsetInCU: 0x1081B, offset: 0x1081B, size: 0x8, addend: 0x0, symName: __ZNSt3__117__compressed_pairINS_16__hash_node_baseIPNS_11__hash_nodeINS_12basic_stringIcNS_11char_traitsIcEENS_9allocatorIcEEEEPvEEEENS6_ISA_EEE5firstB7v160006Ev, symObjAddr: 0x1F60, symBinAddr: 0x100004B90, symSize: 0x20 }
  - { offsetInCU: 0x1083E, offset: 0x1083E, size: 0x8, addend: 0x0, symName: __ZNSt3__110unique_ptrIA_PNS_16__hash_node_baseIPNS_11__hash_nodeINS_12basic_stringIcNS_11char_traitsIcEENS_9allocatorIcEEEEPvEEEENS_25__bucket_list_deallocatorINS6_ISD_EEEEED1B7v160006Ev, symObjAddr: 0x1F90, symBinAddr: 0x100004BC0, symSize: 0x20 }
  - { offsetInCU: 0x10867, offset: 0x10867, size: 0x8, addend: 0x0, symName: __ZNSt3__112__hash_tableINS_12basic_stringIcNS_11char_traitsIcEENS_9allocatorIcEEEENS_4hashIS6_EENS_8equal_toIS6_EENS4_IS6_EEE12__node_allocB7v160006Ev, symObjAddr: 0x1FB0, symBinAddr: 0x100004BE0, symSize: 0x20 }
  - { offsetInCU: 0x1088B, offset: 0x1088B, size: 0x8, addend: 0x0, symName: __ZNSt3__116__hash_node_baseIPNS_11__hash_nodeINS_12basic_stringIcNS_11char_traitsIcEENS_9allocatorIcEEEEPvEEE8__upcastB7v160006Ev, symObjAddr: 0x1FD0, symBinAddr: 0x100004C00, symSize: 0x20 }
  - { offsetInCU: 0x108B3, offset: 0x108B3, size: 0x8, addend: 0x0, symName: __ZNSt3__116allocator_traitsINS_9allocatorINS_11__hash_nodeINS_12basic_stringIcNS_11char_traitsIcEENS1_IcEEEEPvEEEEE7destroyB7v160006IS7_vvEEvRSA_PT_, symObjAddr: 0x1FF0, symBinAddr: 0x100004C20, symSize: 0x20 }
  - { offsetInCU: 0x108ED, offset: 0x108ED, size: 0x8, addend: 0x0, symName: __ZNSt3__122__hash_key_value_typesINS_12basic_stringIcNS_11char_traitsIcEENS_9allocatorIcEEEEE9__get_ptrB7v160006ERS6_, symObjAddr: 0x2010, symBinAddr: 0x100004C40, symSize: 0x10 }
  - { offsetInCU: 0x1090F, offset: 0x1090F, size: 0x8, addend: 0x0, symName: __ZNSt3__116allocator_traitsINS_9allocatorINS_11__hash_nodeINS_12basic_stringIcNS_11char_traitsIcEENS1_IcEEEEPvEEEEE10deallocateB7v160006ERSA_PS9_m, symObjAddr: 0x2020, symBinAddr: 0x100004C50, symSize: 0x30 }
  - { offsetInCU: 0x10951, offset: 0x10951, size: 0x8, addend: 0x0, symName: __ZNSt3__117__compressed_pairINS_16__hash_node_baseIPNS_11__hash_nodeINS_12basic_stringIcNS_11char_traitsIcEENS_9allocatorIcEEEEPvEEEENS6_ISA_EEE6secondB7v160006Ev, symObjAddr: 0x2050, symBinAddr: 0x100004C80, symSize: 0x20 }
  - { offsetInCU: 0x10975, offset: 0x10975, size: 0x8, addend: 0x0, symName: __ZNSt3__122__compressed_pair_elemINS_9allocatorINS_11__hash_nodeINS_12basic_stringIcNS_11char_traitsIcEENS1_IcEEEEPvEEEELi1ELb1EE5__getB7v160006Ev, symObjAddr: 0x2070, symBinAddr: 0x100004CA0, symSize: 0x10 }
  - { offsetInCU: 0x10998, offset: 0x10998, size: 0x8, addend: 0x0, symName: __ZNSt3__114pointer_traitsIPNS_16__hash_node_baseIPNS_11__hash_nodeINS_12basic_stringIcNS_11char_traitsIcEENS_9allocatorIcEEEEPvEEEEE10pointer_toB7v160006ERSC_, symObjAddr: 0x2080, symBinAddr: 0x100004CB0, symSize: 0x10 }
  - { offsetInCU: 0x109BB, offset: 0x109BB, size: 0x8, addend: 0x0, symName: __ZNSt3__19allocatorINS_11__hash_nodeINS_12basic_stringIcNS_11char_traitsIcEENS0_IcEEEEPvEEE10deallocateB7v160006EPS8_m, symObjAddr: 0x2090, symBinAddr: 0x100004CC0, symSize: 0x50 }
  - { offsetInCU: 0x109FB, offset: 0x109FB, size: 0x8, addend: 0x0, symName: __ZNSt3__122__compressed_pair_elemINS_16__hash_node_baseIPNS_11__hash_nodeINS_12basic_stringIcNS_11char_traitsIcEENS_9allocatorIcEEEEPvEEEELi0ELb0EE5__getB7v160006Ev, symObjAddr: 0x20E0, symBinAddr: 0x100004D10, symSize: 0x10 }
  - { offsetInCU: 0x10A1E, offset: 0x10A1E, size: 0x8, addend: 0x0, symName: __ZNSt3__110unique_ptrIA_PNS_16__hash_node_baseIPNS_11__hash_nodeINS_12basic_stringIcNS_11char_traitsIcEENS_9allocatorIcEEEEPvEEEENS_25__bucket_list_deallocatorINS6_ISD_EEEEED2B7v160006Ev, symObjAddr: 0x20F0, symBinAddr: 0x100004D20, symSize: 0x20 }
  - { offsetInCU: 0x10A47, offset: 0x10A47, size: 0x8, addend: 0x0, symName: __ZNSt3__110unique_ptrIA_PNS_16__hash_node_baseIPNS_11__hash_nodeINS_12basic_stringIcNS_11char_traitsIcEENS_9allocatorIcEEEEPvEEEENS_25__bucket_list_deallocatorINS6_ISD_EEEEE5resetB7v160006EDn, symObjAddr: 0x2110, symBinAddr: 0x100004D40, symSize: 0x60 }
  - { offsetInCU: 0x10A86, offset: 0x10A86, size: 0x8, addend: 0x0, symName: __ZNSt3__117__compressed_pairIPPNS_16__hash_node_baseIPNS_11__hash_nodeINS_12basic_stringIcNS_11char_traitsIcEENS_9allocatorIcEEEEPvEEEENS_25__bucket_list_deallocatorINS6_ISD_EEEEE5firstB7v160006Ev, symObjAddr: 0x2170, symBinAddr: 0x100004DA0, symSize: 0x20 }
  - { offsetInCU: 0x10AAA, offset: 0x10AAA, size: 0x8, addend: 0x0, symName: __ZNSt3__117__compressed_pairIPPNS_16__hash_node_baseIPNS_11__hash_nodeINS_12basic_stringIcNS_11char_traitsIcEENS_9allocatorIcEEEEPvEEEENS_25__bucket_list_deallocatorINS6_ISD_EEEEE6secondB7v160006Ev, symObjAddr: 0x2190, symBinAddr: 0x100004DC0, symSize: 0x20 }
  - { offsetInCU: 0x10ACE, offset: 0x10ACE, size: 0x8, addend: 0x0, symName: __ZNSt3__125__bucket_list_deallocatorINS_9allocatorIPNS_16__hash_node_baseIPNS_11__hash_nodeINS_12basic_stringIcNS_11char_traitsIcEENS1_IcEEEEPvEEEEEEEclB7v160006EPSD_, symObjAddr: 0x21B0, symBinAddr: 0x100004DE0, symSize: 0x50 }
  - { offsetInCU: 0x10B01, offset: 0x10B01, size: 0x8, addend: 0x0, symName: __ZNSt3__122__compressed_pair_elemIPPNS_16__hash_node_baseIPNS_11__hash_nodeINS_12basic_stringIcNS_11char_traitsIcEENS_9allocatorIcEEEEPvEEEELi0ELb0EE5__getB7v160006Ev, symObjAddr: 0x2200, symBinAddr: 0x100004E30, symSize: 0x10 }
  - { offsetInCU: 0x10B25, offset: 0x10B25, size: 0x8, addend: 0x0, symName: __ZNSt3__122__compressed_pair_elemINS_25__bucket_list_deallocatorINS_9allocatorIPNS_16__hash_node_baseIPNS_11__hash_nodeINS_12basic_stringIcNS_11char_traitsIcEENS2_IcEEEEPvEEEEEEEELi1ELb0EE5__getB7v160006Ev, symObjAddr: 0x2210, symBinAddr: 0x100004E40, symSize: 0x10 }
  - { offsetInCU: 0x10B48, offset: 0x10B48, size: 0x8, addend: 0x0, symName: __ZNSt3__116allocator_traitsINS_9allocatorIPNS_16__hash_node_baseIPNS_11__hash_nodeINS_12basic_stringIcNS_11char_traitsIcEENS1_IcEEEEPvEEEEEEE10deallocateB7v160006ERSE_PSD_m, symObjAddr: 0x2220, symBinAddr: 0x100004E50, symSize: 0x30 }
  - { offsetInCU: 0x10B8A, offset: 0x10B8A, size: 0x8, addend: 0x0, symName: __ZNSt3__125__bucket_list_deallocatorINS_9allocatorIPNS_16__hash_node_baseIPNS_11__hash_nodeINS_12basic_stringIcNS_11char_traitsIcEENS1_IcEEEEPvEEEEEEE7__allocB7v160006Ev, symObjAddr: 0x2250, symBinAddr: 0x100004E80, symSize: 0x20 }
  - { offsetInCU: 0x10BAE, offset: 0x10BAE, size: 0x8, addend: 0x0, symName: __ZNSt3__125__bucket_list_deallocatorINS_9allocatorIPNS_16__hash_node_baseIPNS_11__hash_nodeINS_12basic_stringIcNS_11char_traitsIcEENS1_IcEEEEPvEEEEEEE4sizeB7v160006Ev, symObjAddr: 0x2270, symBinAddr: 0x100004EA0, symSize: 0x20 }
  - { offsetInCU: 0x10BD2, offset: 0x10BD2, size: 0x8, addend: 0x0, symName: __ZNSt3__19allocatorIPNS_16__hash_node_baseIPNS_11__hash_nodeINS_12basic_stringIcNS_11char_traitsIcEENS0_IcEEEEPvEEEEE10deallocateB7v160006EPSC_m, symObjAddr: 0x2290, symBinAddr: 0x100004EC0, symSize: 0x40 }
  - { offsetInCU: 0x10C12, offset: 0x10C12, size: 0x8, addend: 0x0, symName: __ZNSt3__117__compressed_pairImNS_9allocatorIPNS_16__hash_node_baseIPNS_11__hash_nodeINS_12basic_stringIcNS_11char_traitsIcEENS1_IcEEEEPvEEEEEEE6secondB7v160006Ev, symObjAddr: 0x22D0, symBinAddr: 0x100004F00, symSize: 0x20 }
  - { offsetInCU: 0x10C36, offset: 0x10C36, size: 0x8, addend: 0x0, symName: __ZNSt3__122__compressed_pair_elemINS_9allocatorIPNS_16__hash_node_baseIPNS_11__hash_nodeINS_12basic_stringIcNS_11char_traitsIcEENS1_IcEEEEPvEEEEEELi1ELb1EE5__getB7v160006Ev, symObjAddr: 0x22F0, symBinAddr: 0x100004F20, symSize: 0x10 }
  - { offsetInCU: 0x10C5A, offset: 0x10C5A, size: 0x8, addend: 0x0, symName: __ZNSt3__117__compressed_pairImNS_9allocatorIPNS_16__hash_node_baseIPNS_11__hash_nodeINS_12basic_stringIcNS_11char_traitsIcEENS1_IcEEEEPvEEEEEEE5firstB7v160006Ev, symObjAddr: 0x2300, symBinAddr: 0x100004F30, symSize: 0x20 }
  - { offsetInCU: 0x10C7E, offset: 0x10C7E, size: 0x8, addend: 0x0, symName: __ZNSt3__122__compressed_pair_elemImLi0ELb0EE5__getB7v160006Ev, symObjAddr: 0x2320, symBinAddr: 0x100004F50, symSize: 0x10 }
  - { offsetInCU: 0x10CA2, offset: 0x10CA2, size: 0x8, addend: 0x0, symName: __ZNSt3__117__compressed_pairImNS_9allocatorINS_13unordered_setINS_12basic_stringIcNS_11char_traitsIcEENS1_IcEEEENS_4hashIS7_EENS_8equal_toIS7_EENS1_IS7_EEEEEEE5firstB7v160006Ev, symObjAddr: 0x2330, symBinAddr: 0x100004F60, symSize: 0x20 }
  - { offsetInCU: 0x10CC6, offset: 0x10CC6, size: 0x8, addend: 0x0, symName: __ZNSt3__114__split_bufferIPNS_13unordered_setINS_12basic_stringIcNS_11char_traitsIcEENS_9allocatorIcEEEENS_4hashIS7_EENS_8equal_toIS7_EENS5_IS7_EEEENS5_ISE_EEE19__destruct_at_beginB7v160006EPSE_, symObjAddr: 0x2350, symBinAddr: 0x100004F80, symSize: 0x30 }
  - { offsetInCU: 0x10CF8, offset: 0x10CF8, size: 0x8, addend: 0x0, symName: __ZNSt3__114__split_bufferIPNS_13unordered_setINS_12basic_stringIcNS_11char_traitsIcEENS_9allocatorIcEEEENS_4hashIS7_EENS_8equal_toIS7_EENS5_IS7_EEEENS5_ISE_EEE19__destruct_at_beginEPSE_NS_17integral_constantIbLb1EEE, symObjAddr: 0x2380, symBinAddr: 0x100004FB0, symSize: 0x20 }
  - { offsetInCU: 0x10D37, offset: 0x10D37, size: 0x8, addend: 0x0, symName: __ZNSt3__19allocatorINS_13unordered_setINS_12basic_stringIcNS_11char_traitsIcEENS0_IcEEEENS_4hashIS6_EENS_8equal_toIS6_EENS0_IS6_EEEEE10deallocateB7v160006EPSC_m, symObjAddr: 0x23A0, symBinAddr: 0x100004FD0, symSize: 0x50 }
  - { offsetInCU: 0x10D77, offset: 0x10D77, size: 0x8, addend: 0x0, symName: __ZNSt3__117__compressed_pairImNS_9allocatorINS_13unordered_setINS_12basic_stringIcNS_11char_traitsIcEENS1_IcEEEENS_4hashIS7_EENS_8equal_toIS7_EENS1_IS7_EEEEEEE6secondB7v160006Ev, symObjAddr: 0x23F0, symBinAddr: 0x100005020, symSize: 0x20 }
  - { offsetInCU: 0x10D9B, offset: 0x10D9B, size: 0x8, addend: 0x0, symName: __ZNSt3__122__compressed_pair_elemINS_9allocatorINS_13unordered_setINS_12basic_stringIcNS_11char_traitsIcEENS1_IcEEEENS_4hashIS7_EENS_8equal_toIS7_EENS1_IS7_EEEEEELi1ELb1EE5__getB7v160006Ev, symObjAddr: 0x2410, symBinAddr: 0x100005040, symSize: 0x10 }
  - { offsetInCU: 0x10DBE, offset: 0x10DBE, size: 0x8, addend: 0x0, symName: __ZNSt3__114__split_bufferIPNS_13unordered_setINS_12basic_stringIcNS_11char_traitsIcEENS_9allocatorIcEEEENS_4hashIS7_EENS_8equal_toIS7_EENS5_IS7_EEEENS5_ISE_EEED2Ev, symObjAddr: 0x2420, symBinAddr: 0x100005050, symSize: 0x70 }
  - { offsetInCU: 0x10DE9, offset: 0x10DE9, size: 0x8, addend: 0x0, symName: __ZNSt3__114__split_bufferIPNS_13unordered_setINS_12basic_stringIcNS_11char_traitsIcEENS_9allocatorIcEEEENS_4hashIS7_EENS_8equal_toIS7_EENS5_IS7_EEEENS5_ISE_EEE5clearB7v160006Ev, symObjAddr: 0x2490, symBinAddr: 0x1000050C0, symSize: 0x20 }
  - { offsetInCU: 0x10E0C, offset: 0x10E0C, size: 0x8, addend: 0x0, symName: __ZNSt3__116allocator_traitsINS_9allocatorIPNS_13unordered_setINS_12basic_stringIcNS_11char_traitsIcEENS1_IcEEEENS_4hashIS7_EENS_8equal_toIS7_EENS1_IS7_EEEEEEE10deallocateB7v160006ERSF_PSE_m, symObjAddr: 0x24B0, symBinAddr: 0x1000050E0, symSize: 0x30 }
  - { offsetInCU: 0x10E4E, offset: 0x10E4E, size: 0x8, addend: 0x0, symName: __ZNSt3__114__split_bufferIPNS_13unordered_setINS_12basic_stringIcNS_11char_traitsIcEENS_9allocatorIcEEEENS_4hashIS7_EENS_8equal_toIS7_EENS5_IS7_EEEENS5_ISE_EEE7__allocB7v160006Ev, symObjAddr: 0x24E0, symBinAddr: 0x100005110, symSize: 0x20 }
  - { offsetInCU: 0x10E72, offset: 0x10E72, size: 0x8, addend: 0x0, symName: __ZNKSt3__114__split_bufferIPNS_13unordered_setINS_12basic_stringIcNS_11char_traitsIcEENS_9allocatorIcEEEENS_4hashIS7_EENS_8equal_toIS7_EENS5_IS7_EEEENS5_ISE_EEE8capacityB7v160006Ev, symObjAddr: 0x2500, symBinAddr: 0x100005130, symSize: 0x30 }
  - { offsetInCU: 0x10E96, offset: 0x10E96, size: 0x8, addend: 0x0, symName: __ZNSt3__114__split_bufferIPNS_13unordered_setINS_12basic_stringIcNS_11char_traitsIcEENS_9allocatorIcEEEENS_4hashIS7_EENS_8equal_toIS7_EENS5_IS7_EEEENS5_ISE_EEE17__destruct_at_endB7v160006EPSE_, symObjAddr: 0x2530, symBinAddr: 0x100005160, symSize: 0x30 }
  - { offsetInCU: 0x10EC8, offset: 0x10EC8, size: 0x8, addend: 0x0, symName: __ZNSt3__114__split_bufferIPNS_13unordered_setINS_12basic_stringIcNS_11char_traitsIcEENS_9allocatorIcEEEENS_4hashIS7_EENS_8equal_toIS7_EENS5_IS7_EEEENS5_ISE_EEE17__destruct_at_endB7v160006EPSE_NS_17integral_constantIbLb0EEE, symObjAddr: 0x2560, symBinAddr: 0x100005190, symSize: 0x80 }
  - { offsetInCU: 0x10F06, offset: 0x10F06, size: 0x8, addend: 0x0, symName: __ZNSt3__116allocator_traitsINS_9allocatorIPNS_13unordered_setINS_12basic_stringIcNS_11char_traitsIcEENS1_IcEEEENS_4hashIS7_EENS_8equal_toIS7_EENS1_IS7_EEEEEEE7destroyB7v160006ISE_vvEEvRSF_PT_, symObjAddr: 0x25E0, symBinAddr: 0x100005210, symSize: 0x20 }
  - { offsetInCU: 0x10F41, offset: 0x10F41, size: 0x8, addend: 0x0, symName: __ZNSt3__19allocatorIPNS_13unordered_setINS_12basic_stringIcNS_11char_traitsIcEENS0_IcEEEENS_4hashIS6_EENS_8equal_toIS6_EENS0_IS6_EEEEE10deallocateB7v160006EPSD_m, symObjAddr: 0x2640, symBinAddr: 0x100005270, symSize: 0x40 }
  - { offsetInCU: 0x10F81, offset: 0x10F81, size: 0x8, addend: 0x0, symName: __ZNSt3__117__compressed_pairIPPNS_13unordered_setINS_12basic_stringIcNS_11char_traitsIcEENS_9allocatorIcEEEENS_4hashIS7_EENS_8equal_toIS7_EENS5_IS7_EEEENS5_ISE_EEE6secondB7v160006Ev, symObjAddr: 0x2680, symBinAddr: 0x1000052B0, symSize: 0x20 }
  - { offsetInCU: 0x10FA5, offset: 0x10FA5, size: 0x8, addend: 0x0, symName: __ZNSt3__122__compressed_pair_elemINS_9allocatorIPNS_13unordered_setINS_12basic_stringIcNS_11char_traitsIcEENS1_IcEEEENS_4hashIS7_EENS_8equal_toIS7_EENS1_IS7_EEEEEELi1ELb1EE5__getB7v160006Ev, symObjAddr: 0x26A0, symBinAddr: 0x1000052D0, symSize: 0x10 }
  - { offsetInCU: 0x10FC9, offset: 0x10FC9, size: 0x8, addend: 0x0, symName: __ZNKSt3__114__split_bufferIPNS_13unordered_setINS_12basic_stringIcNS_11char_traitsIcEENS_9allocatorIcEEEENS_4hashIS7_EENS_8equal_toIS7_EENS5_IS7_EEEENS5_ISE_EEE9__end_capB7v160006Ev, symObjAddr: 0x26B0, symBinAddr: 0x1000052E0, symSize: 0x20 }
  - { offsetInCU: 0x10FED, offset: 0x10FED, size: 0x8, addend: 0x0, symName: __ZNKSt3__117__compressed_pairIPPNS_13unordered_setINS_12basic_stringIcNS_11char_traitsIcEENS_9allocatorIcEEEENS_4hashIS7_EENS_8equal_toIS7_EENS5_IS7_EEEENS5_ISE_EEE5firstB7v160006Ev, symObjAddr: 0x26D0, symBinAddr: 0x100005300, symSize: 0x20 }
  - { offsetInCU: 0x11011, offset: 0x11011, size: 0x8, addend: 0x0, symName: __ZNKSt3__122__compressed_pair_elemIPPNS_13unordered_setINS_12basic_stringIcNS_11char_traitsIcEENS_9allocatorIcEEEENS_4hashIS7_EENS_8equal_toIS7_EENS5_IS7_EEEELi0ELb0EE5__getB7v160006Ev, symObjAddr: 0x26F0, symBinAddr: 0x100005320, symSize: 0x10 }
  - { offsetInCU: 0x11034, offset: 0x11034, size: 0x8, addend: 0x0, symName: __ZNSt3__13mapINS_12basic_stringIcNS_11char_traitsIcEENS_9allocatorIcEEEEiNS_4lessIS6_EENS4_INS_4pairIKS6_iEEEEED2B7v160006Ev, symObjAddr: 0x2700, symBinAddr: 0x100005330, symSize: 0x20 }
  - { offsetInCU: 0x1105C, offset: 0x1105C, size: 0x8, addend: 0x0, symName: __ZNSt3__16__treeINS_12__value_typeINS_12basic_stringIcNS_11char_traitsIcEENS_9allocatorIcEEEEiEENS_19__map_value_compareIS7_S8_NS_4lessIS7_EELb1EEENS5_IS8_EEED1Ev, symObjAddr: 0x2720, symBinAddr: 0x100005350, symSize: 0x20 }
  - { offsetInCU: 0x11086, offset: 0x11086, size: 0x8, addend: 0x0, symName: __ZNSt3__16__treeINS_12__value_typeINS_12basic_stringIcNS_11char_traitsIcEENS_9allocatorIcEEEEiEENS_19__map_value_compareIS7_S8_NS_4lessIS7_EELb1EEENS5_IS8_EEED2Ev, symObjAddr: 0x2740, symBinAddr: 0x100005370, symSize: 0x30 }
  - { offsetInCU: 0x110B1, offset: 0x110B1, size: 0x8, addend: 0x0, symName: __ZNSt3__16__treeINS_12__value_typeINS_12basic_stringIcNS_11char_traitsIcEENS_9allocatorIcEEEEiEENS_19__map_value_compareIS7_S8_NS_4lessIS7_EELb1EEENS5_IS8_EEE7destroyEPNS_11__tree_nodeIS8_PvEE, symObjAddr: 0x2770, symBinAddr: 0x1000053A0, symSize: 0xB0 }
  - { offsetInCU: 0x110FD, offset: 0x110FD, size: 0x8, addend: 0x0, symName: __ZNKSt3__16__treeINS_12__value_typeINS_12basic_stringIcNS_11char_traitsIcEENS_9allocatorIcEEEEiEENS_19__map_value_compareIS7_S8_NS_4lessIS7_EELb1EEENS5_IS8_EEE6__rootB7v160006Ev, symObjAddr: 0x2820, symBinAddr: 0x100005450, symSize: 0x20 }
  - { offsetInCU: 0x11121, offset: 0x11121, size: 0x8, addend: 0x0, symName: __ZNSt3__16__treeINS_12__value_typeINS_12basic_stringIcNS_11char_traitsIcEENS_9allocatorIcEEEEiEENS_19__map_value_compareIS7_S8_NS_4lessIS7_EELb1EEENS5_IS8_EEE12__node_allocB7v160006Ev, symObjAddr: 0x2840, symBinAddr: 0x100005470, symSize: 0x20 }
  - { offsetInCU: 0x11144, offset: 0x11144, size: 0x8, addend: 0x0, symName: __ZNSt3__116allocator_traitsINS_9allocatorINS_11__tree_nodeINS_12__value_typeINS_12basic_stringIcNS_11char_traitsIcEENS1_IcEEEEiEEPvEEEEE7destroyB7v160006INS_4pairIKS8_iEEvvEEvRSC_PT_, symObjAddr: 0x2860, symBinAddr: 0x100005490, symSize: 0x20 }
  - { offsetInCU: 0x1117E, offset: 0x1117E, size: 0x8, addend: 0x0, symName: __ZNSt3__122__tree_key_value_typesINS_12__value_typeINS_12basic_stringIcNS_11char_traitsIcEENS_9allocatorIcEEEEiEEE9__get_ptrB7v160006ERS8_, symObjAddr: 0x2880, symBinAddr: 0x1000054B0, symSize: 0x20 }
  - { offsetInCU: 0x111A1, offset: 0x111A1, size: 0x8, addend: 0x0, symName: __ZNSt3__116allocator_traitsINS_9allocatorINS_11__tree_nodeINS_12__value_typeINS_12basic_stringIcNS_11char_traitsIcEENS1_IcEEEEiEEPvEEEEE10deallocateB7v160006ERSC_PSB_m, symObjAddr: 0x28A0, symBinAddr: 0x1000054D0, symSize: 0x30 }
  - { offsetInCU: 0x111E3, offset: 0x111E3, size: 0x8, addend: 0x0, symName: __ZNSt3__117__compressed_pairINS_15__tree_end_nodeIPNS_16__tree_node_baseIPvEEEENS_9allocatorINS_11__tree_nodeINS_12__value_typeINS_12basic_stringIcNS_11char_traitsIcEENS7_IcEEEEiEES3_EEEEE6secondB7v160006Ev, symObjAddr: 0x28D0, symBinAddr: 0x100005500, symSize: 0x20 }
  - { offsetInCU: 0x11207, offset: 0x11207, size: 0x8, addend: 0x0, symName: __ZNSt3__122__compressed_pair_elemINS_9allocatorINS_11__tree_nodeINS_12__value_typeINS_12basic_stringIcNS_11char_traitsIcEENS1_IcEEEEiEEPvEEEELi1ELb1EE5__getB7v160006Ev, symObjAddr: 0x28F0, symBinAddr: 0x100005520, symSize: 0x10 }
  - { offsetInCU: 0x1122A, offset: 0x1122A, size: 0x8, addend: 0x0, symName: __ZNSt3__14pairIKNS_12basic_stringIcNS_11char_traitsIcEENS_9allocatorIcEEEEiED1Ev, symObjAddr: 0x2940, symBinAddr: 0x100005570, symSize: 0x20 }
  - { offsetInCU: 0x11254, offset: 0x11254, size: 0x8, addend: 0x0, symName: __ZNSt3__14pairIKNS_12basic_stringIcNS_11char_traitsIcEENS_9allocatorIcEEEEiED2Ev, symObjAddr: 0x2960, symBinAddr: 0x100005590, symSize: 0x20 }
  - { offsetInCU: 0x1127F, offset: 0x1127F, size: 0x8, addend: 0x0, symName: __ZNSt3__112__value_typeINS_12basic_stringIcNS_11char_traitsIcEENS_9allocatorIcEEEEiE11__get_valueB7v160006Ev, symObjAddr: 0x2980, symBinAddr: 0x1000055B0, symSize: 0x20 }
  - { offsetInCU: 0x112A3, offset: 0x112A3, size: 0x8, addend: 0x0, symName: __ZNSt3__19allocatorINS_11__tree_nodeINS_12__value_typeINS_12basic_stringIcNS_11char_traitsIcEENS0_IcEEEEiEEPvEEE10deallocateB7v160006EPSA_m, symObjAddr: 0x29D0, symBinAddr: 0x100005600, symSize: 0x40 }
  - { offsetInCU: 0x112E3, offset: 0x112E3, size: 0x8, addend: 0x0, symName: __ZNKSt3__16__treeINS_12__value_typeINS_12basic_stringIcNS_11char_traitsIcEENS_9allocatorIcEEEEiEENS_19__map_value_compareIS7_S8_NS_4lessIS7_EELb1EEENS5_IS8_EEE10__end_nodeB7v160006Ev, symObjAddr: 0x2A10, symBinAddr: 0x100005640, symSize: 0x30 }
  - { offsetInCU: 0x11307, offset: 0x11307, size: 0x8, addend: 0x0, symName: __ZNKSt3__117__compressed_pairINS_15__tree_end_nodeIPNS_16__tree_node_baseIPvEEEENS_9allocatorINS_11__tree_nodeINS_12__value_typeINS_12basic_stringIcNS_11char_traitsIcEENS7_IcEEEEiEES3_EEEEE5firstB7v160006Ev, symObjAddr: 0x2A40, symBinAddr: 0x100005670, symSize: 0x20 }
  - { offsetInCU: 0x1132B, offset: 0x1132B, size: 0x8, addend: 0x0, symName: __ZNKSt3__122__compressed_pair_elemINS_15__tree_end_nodeIPNS_16__tree_node_baseIPvEEEELi0ELb0EE5__getB7v160006Ev, symObjAddr: 0x2A60, symBinAddr: 0x100005690, symSize: 0xE }
  - { offsetInCU: 0x1309E, offset: 0x244CD, size: 0x8, addend: 0x0, symName: __ZNSt3__17advanceB7v160006IPNS_12basic_stringIcNS_11char_traitsIcEENS_9allocatorIcEEEEllvEEvRT_T0_, symObjAddr: 0x3280, symBinAddr: 0x1000084C0, symSize: 0x50 }
  - { offsetInCU: 0x1331E, offset: 0x2474D, size: 0x8, addend: 0x0, symName: __ZNSt3__17advanceB7v160006INS_16reverse_iteratorIPNS_12basic_stringIcNS_11char_traitsIcEENS_9allocatorIcEEEEEEllvEEvRT_T0_, symObjAddr: 0x3680, symBinAddr: 0x1000088C0, symSize: 0x50 }
  - { offsetInCU: 0x138F6, offset: 0x24D25, size: 0x8, addend: 0x0, symName: __ZNSt3__17advanceB7v160006IPNS_6vectorINS_12basic_stringIcNS_11char_traitsIcEENS_9allocatorIcEEEENS5_IS7_EEEEllvEEvRT_T0_, symObjAddr: 0x55E0, symBinAddr: 0x10000A3B0, symSize: 0x50 }
  - { offsetInCU: 0x13B76, offset: 0x24FA5, size: 0x8, addend: 0x0, symName: __ZNSt3__17advanceB7v160006INS_16reverse_iteratorIPNS_6vectorINS_12basic_stringIcNS_11char_traitsIcEENS_9allocatorIcEEEENS6_IS8_EEEEEEllvEEvRT_T0_, symObjAddr: 0x5A30, symBinAddr: 0x10000A7A0, symSize: 0x50 }
  - { offsetInCU: 0x14F83, offset: 0x263B2, size: 0x8, addend: 0x0, symName: __ZNSt3__17advanceB7v160006IPP14SyntaxTreeNodellvEEvRT_T0_, symObjAddr: 0x76B0, symBinAddr: 0x10000C310, symSize: 0x50 }
  - { offsetInCU: 0x15593, offset: 0x269C2, size: 0x8, addend: 0x0, symName: __ZNSt3__124__put_character_sequenceB7v160006IcNS_11char_traitsIcEEEERNS_13basic_ostreamIT_T0_EES7_PKS4_m, symObjAddr: 0x87D0, symBinAddr: 0x10000D430, symSize: 0x1F0 }
  - { offsetInCU: 0x17CB3, offset: 0x290E2, size: 0x8, addend: 0x0, symName: __ZNSt3__17getlineB7v160006IcNS_11char_traitsIcEENS_9allocatorIcEEEERNS_13basic_istreamIT_T0_EES9_RNS_12basic_stringIS6_S7_T1_EE, symObjAddr: 0x410, symBinAddr: 0x100005AB0, symSize: 0x50 }
  - { offsetInCU: 0x18106, offset: 0x29535, size: 0x8, addend: 0x0, symName: __ZNSt3__1rsB7v160006IcNS_11char_traitsIcEENS_9allocatorIcEEEERNS_13basic_istreamIT_T0_EES9_RNS_12basic_stringIS6_S7_T1_EE, symObjAddr: 0x5E0, symBinAddr: 0x100005C80, symSize: 0x2F0 }
  - { offsetInCU: 0x181ED, offset: 0x2961C, size: 0x8, addend: 0x0, symName: __ZNSt3__1eqB7v160006IcNS_11char_traitsIcEENS_9allocatorIcEEEEbRKNS_12basic_stringIT_T0_T1_EEPKS6_, symObjAddr: 0xC30, symBinAddr: 0x100006250, symSize: 0x60 }
  - { offsetInCU: 0x18245, offset: 0x29674, size: 0x8, addend: 0x0, symName: __ZNSt3__1lsB7v160006INS_11char_traitsIcEEEERNS_13basic_ostreamIcT_EES6_PKc, symObjAddr: 0xCB0, symBinAddr: 0x1000062D0, symSize: 0x40 }
  - { offsetInCU: 0x1828B, offset: 0x296BA, size: 0x8, addend: 0x0, symName: __ZNSt3__14endlB7v160006IcNS_11char_traitsIcEEEERNS_13basic_ostreamIT_T0_EES7_, symObjAddr: 0xD10, symBinAddr: 0x100006330, symSize: 0x50 }
  - { offsetInCU: 0x182CB, offset: 0x296FA, size: 0x8, addend: 0x0, symName: __ZNSt3__119__debug_db_insert_cB7v160006INS_6vectorINS_12basic_stringIcNS_11char_traitsIcEENS_9allocatorIcEEEENS5_IS7_EEEEEEvPT_, symObjAddr: 0x1B10, symBinAddr: 0x100007050, symSize: 0x10 }
  - { offsetInCU: 0x182FC, offset: 0x2972B, size: 0x8, addend: 0x0, symName: __ZNSt3__125__debug_db_invalidate_allB7v160006INS_6vectorINS_12basic_stringIcNS_11char_traitsIcEENS_9allocatorIcEEEENS5_IS7_EEEEEEvPT_, symObjAddr: 0x1C90, symBinAddr: 0x1000071B0, symSize: 0x10 }
  - { offsetInCU: 0x18354, offset: 0x29783, size: 0x8, addend: 0x0, symName: __ZNSt3__112construct_atB7v160006INS_12basic_stringIcNS_11char_traitsIcEENS_9allocatorIcEEEEJRKS6_EPS6_EEPT_SB_DpOT0_, symObjAddr: 0x2120, symBinAddr: 0x100007430, symSize: 0x40 }
  - { offsetInCU: 0x183C6, offset: 0x297F5, size: 0x8, addend: 0x0, symName: __ZNSt3__13maxB7v160006ImEERKT_S3_S3_, symObjAddr: 0x2430, symBinAddr: 0x100007740, symSize: 0x30 }
  - { offsetInCU: 0x18409, offset: 0x29838, size: 0x8, addend: 0x0, symName: __ZNSt3__13minB7v160006ImEERKT_S3_S3_, symObjAddr: 0x2460, symBinAddr: 0x100007770, symSize: 0x30 }
  - { offsetInCU: 0x1863F, offset: 0x29A6E, size: 0x8, addend: 0x0, symName: __ZNSt3__13minB7v160006ImNS_6__lessImmEEEERKT_S5_S5_T0_, symObjAddr: 0x24F0, symBinAddr: 0x100007800, symSize: 0x50 }
  - { offsetInCU: 0x188CA, offset: 0x29CF9, size: 0x8, addend: 0x0, symName: __ZNSt3__120__throw_length_errorB7v160006EPKc, symObjAddr: 0x25D0, symBinAddr: 0x1000078E0, symSize: 0x70 }
  - { offsetInCU: 0x188F3, offset: 0x29D22, size: 0x8, addend: 0x0, symName: __ZNSt3__13maxB7v160006ImNS_6__lessImmEEEERKT_S5_S5_T0_, symObjAddr: 0x26B0, symBinAddr: 0x1000079C0, symSize: 0x50 }
  - { offsetInCU: 0x1894D, offset: 0x29D7C, size: 0x8, addend: 0x0, symName: __ZNSt3__119__allocate_at_leastB7v160006INS_9allocatorINS_12basic_stringIcNS_11char_traitsIcEENS1_IcEEEEEEEENS_19__allocation_resultINS_16allocator_traitsIT_E7pointerEEERSA_m, symObjAddr: 0x27F0, symBinAddr: 0x100007B00, symSize: 0x40 }
  - { offsetInCU: 0x18990, offset: 0x29DBF, size: 0x8, addend: 0x0, symName: __ZNSt3__117__libcpp_allocateB7v160006Emm, symObjAddr: 0x2960, symBinAddr: 0x100007C70, symSize: 0x60 }
  - { offsetInCU: 0x189EA, offset: 0x29E19, size: 0x8, addend: 0x0, symName: __ZNSt3__121__libcpp_operator_newB7v160006IJmSt11align_val_tEEEPvDpT_, symObjAddr: 0x29E0, symBinAddr: 0x100007CD0, symSize: 0x30 }
  - { offsetInCU: 0x18A37, offset: 0x29E66, size: 0x8, addend: 0x0, symName: __ZNSt3__121__libcpp_operator_newB7v160006IJmEEEPvDpT_, symObjAddr: 0x2A10, symBinAddr: 0x100007D00, symSize: 0x20 }
  - { offsetInCU: 0x18A70, offset: 0x29E9F, size: 0x8, addend: 0x0, symName: __ZNSt3__142__uninitialized_allocator_move_if_noexceptB7v160006INS_9allocatorINS_12basic_stringIcNS_11char_traitsIcEENS1_IcEEEEEENS_16reverse_iteratorIPS6_EESA_SA_EET2_RT_T0_T1_SB_, symObjAddr: 0x2B40, symBinAddr: 0x100007D80, symSize: 0x180 }
  - { offsetInCU: 0x18B0F, offset: 0x29F3E, size: 0x8, addend: 0x0, symName: __ZNSt3__14swapB7v160006IPNS_12basic_stringIcNS_11char_traitsIcEENS_9allocatorIcEEEEEENS_9enable_ifIXaasr21is_move_constructibleIT_EE5valuesr18is_move_assignableIS9_EE5valueEvE4typeERS9_SC_, symObjAddr: 0x2D10, symBinAddr: 0x100007F50, symSize: 0x40 }
  - { offsetInCU: 0x18B60, offset: 0x29F8F, size: 0x8, addend: 0x0, symName: __ZNSt3__122__make_exception_guardB7v160006INS_29_AllocatorDestroyRangeReverseINS_9allocatorINS_12basic_stringIcNS_11char_traitsIcEENS2_IcEEEEEENS_16reverse_iteratorIPS7_EEEEEENS_28__exception_guard_exceptionsIT_EESE_, symObjAddr: 0x2DF0, symBinAddr: 0x100008030, symSize: 0x60 }
  - { offsetInCU: 0x18B95, offset: 0x29FC4, size: 0x8, addend: 0x0, symName: __ZNSt3__1neB7v160006IPNS_12basic_stringIcNS_11char_traitsIcEENS_9allocatorIcEEEES7_EEbRKNS_16reverse_iteratorIT_EERKNS8_IT0_EE, symObjAddr: 0x2E90, symBinAddr: 0x1000080D0, symSize: 0x40 }
  - { offsetInCU: 0x18BE1, offset: 0x2A010, size: 0x8, addend: 0x0, symName: __ZNSt3__112__to_addressB7v160006INS_16reverse_iteratorIPNS_12basic_stringIcNS_11char_traitsIcEENS_9allocatorIcEEEEEEvEENS_5decayIDTclsr19__to_address_helperIT_EE6__callclsr3stdE7declvalIRKSB_EEEEE4typeESD_, symObjAddr: 0x2F00, symBinAddr: 0x100008140, symSize: 0x20 }
  - { offsetInCU: 0x18C17, offset: 0x2A046, size: 0x8, addend: 0x0, symName: __ZNSt3__112construct_atB7v160006INS_12basic_stringIcNS_11char_traitsIcEENS_9allocatorIcEEEEJS6_EPS6_EEPT_S9_DpOT0_, symObjAddr: 0x3060, symBinAddr: 0x1000082A0, symSize: 0x40 }
  - { offsetInCU: 0x18C89, offset: 0x2A0B8, size: 0x8, addend: 0x0, symName: __ZNSt3__115__debug_db_swapB7v160006INS_12basic_stringIcNS_11char_traitsIcEENS_9allocatorIcEEEEEEvPT_S8_, symObjAddr: 0x3180, symBinAddr: 0x1000083C0, symSize: 0x10 }
  - { offsetInCU: 0x18CF2, offset: 0x2A121, size: 0x8, addend: 0x0, symName: __ZNSt3__14prevB7v160006IPNS_12basic_stringIcNS_11char_traitsIcEENS_9allocatorIcEEEEEENS_9enable_ifIXsr25__is_cpp17_input_iteratorIT_EE5valueES9_E4typeES9_NS_15iterator_traitsIS9_E15difference_typeE, symObjAddr: 0x3230, symBinAddr: 0x100008470, symSize: 0x50 }
  - { offsetInCU: 0x18D35, offset: 0x2A164, size: 0x8, addend: 0x0, symName: __ZNSt3__121__convert_to_integralB7v160006El, symObjAddr: 0x32D0, symBinAddr: 0x100008510, symSize: 0x10 }
  - { offsetInCU: 0x18D61, offset: 0x2A190, size: 0x8, addend: 0x0, symName: __ZNSt3__19__advanceB7v160006IPNS_12basic_stringIcNS_11char_traitsIcEENS_9allocatorIcEEEEEEvRT_NS_15iterator_traitsIS8_E15difference_typeENS_26random_access_iterator_tagE, symObjAddr: 0x32E0, symBinAddr: 0x100008520, symSize: 0x20 }
  - { offsetInCU: 0x18DAA, offset: 0x2A1D9, size: 0x8, addend: 0x0, symName: __ZNSt3__119__allocator_destroyB7v160006INS_9allocatorINS_12basic_stringIcNS_11char_traitsIcEENS1_IcEEEEEENS_16reverse_iteratorINS8_IPS6_EEEESB_EEvRT_T0_T1_, symObjAddr: 0x3430, symBinAddr: 0x100008670, symSize: 0x70 }
  - { offsetInCU: 0x18E0D, offset: 0x2A23C, size: 0x8, addend: 0x0, symName: __ZNSt3__1neB7v160006INS_16reverse_iteratorIPNS_12basic_stringIcNS_11char_traitsIcEENS_9allocatorIcEEEEEES9_EEbRKNS1_IT_EERKNS1_IT0_EE, symObjAddr: 0x34D0, symBinAddr: 0x100008710, symSize: 0x50 }
  - { offsetInCU: 0x18E59, offset: 0x2A288, size: 0x8, addend: 0x0, symName: __ZNSt3__112__to_addressB7v160006INS_16reverse_iteratorINS1_IPNS_12basic_stringIcNS_11char_traitsIcEENS_9allocatorIcEEEEEEEEvEENS_5decayIDTclsr19__to_address_helperIT_EE6__callclsr3stdE7declvalIRKSC_EEEEE4typeESE_, symObjAddr: 0x3520, symBinAddr: 0x100008760, symSize: 0x20 }
  - { offsetInCU: 0x18EB9, offset: 0x2A2E8, size: 0x8, addend: 0x0, symName: __ZNSt3__14prevB7v160006INS_16reverse_iteratorIPNS_12basic_stringIcNS_11char_traitsIcEENS_9allocatorIcEEEEEEEENS_9enable_ifIXsr25__is_cpp17_input_iteratorIT_EE5valueESB_E4typeESB_NS_15iterator_traitsISB_E15difference_typeE, symObjAddr: 0x3620, symBinAddr: 0x100008860, symSize: 0x60 }
  - { offsetInCU: 0x18EFC, offset: 0x2A32B, size: 0x8, addend: 0x0, symName: __ZNSt3__19__advanceB7v160006INS_16reverse_iteratorIPNS_12basic_stringIcNS_11char_traitsIcEENS_9allocatorIcEEEEEEEEvRT_NS_15iterator_traitsISA_E15difference_typeENS_26random_access_iterator_tagE, symObjAddr: 0x36D0, symBinAddr: 0x100008910, symSize: 0x30 }
  - { offsetInCU: 0x18F6C, offset: 0x2A39B, size: 0x8, addend: 0x0, symName: __ZNSt3__112construct_atB7v160006INS_6vectorINS_12basic_stringIcNS_11char_traitsIcEENS_9allocatorIcEEEENS5_IS7_EEEEJRKS9_EPS9_EEPT_SE_DpOT0_, symObjAddr: 0x3DA0, symBinAddr: 0x100008E30, symSize: 0x40 }
  - { offsetInCU: 0x18FDE, offset: 0x2A40D, size: 0x8, addend: 0x0, symName: __ZNSt3__122__make_exception_guardB7v160006INS_6vectorINS_12basic_stringIcNS_11char_traitsIcEENS_9allocatorIcEEEENS5_IS7_EEE16__destroy_vectorEEENS_28__exception_guard_exceptionsIT_EESC_, symObjAddr: 0x3F60, symBinAddr: 0x100008FF0, symSize: 0x40 }
  - { offsetInCU: 0x19013, offset: 0x2A442, size: 0x8, addend: 0x0, symName: __ZNSt3__130__uninitialized_allocator_copyB7v160006INS_9allocatorINS_12basic_stringIcNS_11char_traitsIcEENS1_IcEEEEEEPS6_S8_S8_EET2_RT_T0_T1_S9_, symObjAddr: 0x4200, symBinAddr: 0x100009240, symSize: 0x100 }
  - { offsetInCU: 0x190B1, offset: 0x2A4E0, size: 0x8, addend: 0x0, symName: __ZNSt3__122__make_exception_guardB7v160006INS_29_AllocatorDestroyRangeReverseINS_9allocatorINS_12basic_stringIcNS_11char_traitsIcEENS2_IcEEEEEEPS7_EEEENS_28__exception_guard_exceptionsIT_EESC_, symObjAddr: 0x4300, symBinAddr: 0x100009340, symSize: 0x60 }
  - { offsetInCU: 0x190E6, offset: 0x2A515, size: 0x8, addend: 0x0, symName: __ZNSt3__112construct_atB7v160006INS_12basic_stringIcNS_11char_traitsIcEENS_9allocatorIcEEEEJRS6_EPS6_EEPT_SA_DpOT0_, symObjAddr: 0x44C0, symBinAddr: 0x100009500, symSize: 0x40 }
  - { offsetInCU: 0x19158, offset: 0x2A587, size: 0x8, addend: 0x0, symName: __ZNSt3__119__allocator_destroyB7v160006INS_9allocatorINS_12basic_stringIcNS_11char_traitsIcEENS1_IcEEEEEENS_16reverse_iteratorIPS6_EESA_EEvRT_T0_T1_, symObjAddr: 0x45A0, symBinAddr: 0x1000095E0, symSize: 0x70 }
  - { offsetInCU: 0x191BB, offset: 0x2A5EA, size: 0x8, addend: 0x0, symName: __ZNSt3__119__allocate_at_leastB7v160006INS_9allocatorINS_6vectorINS_12basic_stringIcNS_11char_traitsIcEENS1_IcEEEENS1_IS7_EEEEEEEENS_19__allocation_resultINS_16allocator_traitsIT_E7pointerEEERSD_m, symObjAddr: 0x4BF0, symBinAddr: 0x100009AD0, symSize: 0x40 }
  - { offsetInCU: 0x191FE, offset: 0x2A62D, size: 0x8, addend: 0x0, symName: __ZNSt3__142__uninitialized_allocator_move_if_noexceptB7v160006INS_9allocatorINS_6vectorINS_12basic_stringIcNS_11char_traitsIcEENS1_IcEEEENS1_IS7_EEEEEENS_16reverse_iteratorIPS9_EESD_SD_EET2_RT_T0_T1_SE_, symObjAddr: 0x4E50, symBinAddr: 0x100009C60, symSize: 0x180 }
  - { offsetInCU: 0x1929D, offset: 0x2A6CC, size: 0x8, addend: 0x0, symName: __ZNSt3__14swapB7v160006IPNS_6vectorINS_12basic_stringIcNS_11char_traitsIcEENS_9allocatorIcEEEENS5_IS7_EEEEEENS_9enable_ifIXaasr21is_move_constructibleIT_EE5valuesr18is_move_assignableISC_EE5valueEvE4typeERSC_SF_, symObjAddr: 0x5020, symBinAddr: 0x100009E30, symSize: 0x40 }
  - { offsetInCU: 0x192EE, offset: 0x2A71D, size: 0x8, addend: 0x0, symName: __ZNSt3__125__debug_db_invalidate_allB7v160006INS_6vectorINS1_INS_12basic_stringIcNS_11char_traitsIcEENS_9allocatorIcEEEENS5_IS7_EEEENS5_IS9_EEEEEEvPT_, symObjAddr: 0x5100, symBinAddr: 0x100009F10, symSize: 0x10 }
  - { offsetInCU: 0x1931F, offset: 0x2A74E, size: 0x8, addend: 0x0, symName: __ZNSt3__122__make_exception_guardB7v160006INS_29_AllocatorDestroyRangeReverseINS_9allocatorINS_6vectorINS_12basic_stringIcNS_11char_traitsIcEENS2_IcEEEENS2_IS8_EEEEEENS_16reverse_iteratorIPSA_EEEEEENS_28__exception_guard_exceptionsIT_EESH_, symObjAddr: 0x5150, symBinAddr: 0x100009F20, symSize: 0x60 }
  - { offsetInCU: 0x19354, offset: 0x2A783, size: 0x8, addend: 0x0, symName: __ZNSt3__1neB7v160006IPNS_6vectorINS_12basic_stringIcNS_11char_traitsIcEENS_9allocatorIcEEEENS5_IS7_EEEESA_EEbRKNS_16reverse_iteratorIT_EERKNSB_IT0_EE, symObjAddr: 0x51F0, symBinAddr: 0x100009FC0, symSize: 0x40 }
  - { offsetInCU: 0x193A0, offset: 0x2A7CF, size: 0x8, addend: 0x0, symName: __ZNSt3__112__to_addressB7v160006INS_16reverse_iteratorIPNS_6vectorINS_12basic_stringIcNS_11char_traitsIcEENS_9allocatorIcEEEENS6_IS8_EEEEEEvEENS_5decayIDTclsr19__to_address_helperIT_EE6__callclsr3stdE7declvalIRKSE_EEEEE4typeESG_, symObjAddr: 0x5260, symBinAddr: 0x10000A030, symSize: 0x20 }
  - { offsetInCU: 0x193D6, offset: 0x2A805, size: 0x8, addend: 0x0, symName: __ZNSt3__112construct_atB7v160006INS_6vectorINS_12basic_stringIcNS_11char_traitsIcEENS_9allocatorIcEEEENS5_IS7_EEEEJS9_EPS9_EEPT_SC_DpOT0_, symObjAddr: 0x53C0, symBinAddr: 0x10000A190, symSize: 0x40 }
  - { offsetInCU: 0x19448, offset: 0x2A877, size: 0x8, addend: 0x0, symName: __ZNSt3__115__debug_db_swapB7v160006INS_6vectorINS_12basic_stringIcNS_11char_traitsIcEENS_9allocatorIcEEEENS5_IS7_EEEEEEvPT_SB_, symObjAddr: 0x5510, symBinAddr: 0x10000A2E0, symSize: 0x10 }
  - { offsetInCU: 0x194B1, offset: 0x2A8E0, size: 0x8, addend: 0x0, symName: __ZNSt3__14prevB7v160006IPNS_6vectorINS_12basic_stringIcNS_11char_traitsIcEENS_9allocatorIcEEEENS5_IS7_EEEEEENS_9enable_ifIXsr25__is_cpp17_input_iteratorIT_EE5valueESC_E4typeESC_NS_15iterator_traitsISC_E15difference_typeE, symObjAddr: 0x5590, symBinAddr: 0x10000A360, symSize: 0x50 }
  - { offsetInCU: 0x194F4, offset: 0x2A923, size: 0x8, addend: 0x0, symName: __ZNSt3__19__advanceB7v160006IPNS_6vectorINS_12basic_stringIcNS_11char_traitsIcEENS_9allocatorIcEEEENS5_IS7_EEEEEEvRT_NS_15iterator_traitsISB_E15difference_typeENS_26random_access_iterator_tagE, symObjAddr: 0x5630, symBinAddr: 0x10000A400, symSize: 0x20 }
  - { offsetInCU: 0x1953D, offset: 0x2A96C, size: 0x8, addend: 0x0, symName: __ZNSt3__119__allocator_destroyB7v160006INS_9allocatorINS_6vectorINS_12basic_stringIcNS_11char_traitsIcEENS1_IcEEEENS1_IS7_EEEEEENS_16reverse_iteratorINSB_IPS9_EEEESE_EEvRT_T0_T1_, symObjAddr: 0x5780, symBinAddr: 0x10000A550, symSize: 0x70 }
  - { offsetInCU: 0x195A0, offset: 0x2A9CF, size: 0x8, addend: 0x0, symName: __ZNSt3__1neB7v160006INS_16reverse_iteratorIPNS_6vectorINS_12basic_stringIcNS_11char_traitsIcEENS_9allocatorIcEEEENS6_IS8_EEEEEESC_EEbRKNS1_IT_EERKNS1_IT0_EE, symObjAddr: 0x5820, symBinAddr: 0x10000A5F0, symSize: 0x50 }
  - { offsetInCU: 0x195EC, offset: 0x2AA1B, size: 0x8, addend: 0x0, symName: __ZNSt3__112__to_addressB7v160006INS_16reverse_iteratorINS1_IPNS_6vectorINS_12basic_stringIcNS_11char_traitsIcEENS_9allocatorIcEEEENS6_IS8_EEEEEEEEvEENS_5decayIDTclsr19__to_address_helperIT_EE6__callclsr3stdE7declvalIRKSF_EEEEE4typeESH_, symObjAddr: 0x5890, symBinAddr: 0x10000A640, symSize: 0x20 }
  - { offsetInCU: 0x1964C, offset: 0x2AA7B, size: 0x8, addend: 0x0, symName: __ZNSt3__14prevB7v160006INS_16reverse_iteratorIPNS_6vectorINS_12basic_stringIcNS_11char_traitsIcEENS_9allocatorIcEEEENS6_IS8_EEEEEEEENS_9enable_ifIXsr25__is_cpp17_input_iteratorIT_EE5valueESE_E4typeESE_NS_15iterator_traitsISE_E15difference_typeE, symObjAddr: 0x59D0, symBinAddr: 0x10000A740, symSize: 0x60 }
  - { offsetInCU: 0x1968F, offset: 0x2AABE, size: 0x8, addend: 0x0, symName: __ZNSt3__19__advanceB7v160006INS_16reverse_iteratorIPNS_6vectorINS_12basic_stringIcNS_11char_traitsIcEENS_9allocatorIcEEEENS6_IS8_EEEEEEEEvRT_NS_15iterator_traitsISD_E15difference_typeENS_26random_access_iterator_tagE, symObjAddr: 0x5A80, symBinAddr: 0x10000A7F0, symSize: 0x30 }
  - { offsetInCU: 0x196D8, offset: 0x2AB07, size: 0x8, addend: 0x0, symName: __ZNSt3__1eqB7v160006IcNS_11char_traitsIcEEEEbNS_17basic_string_viewIT_T0_EES6_, symObjAddr: 0x5F70, symBinAddr: 0x10000AC20, symSize: 0x90 }
  - { offsetInCU: 0x19727, offset: 0x2AB56, size: 0x8, addend: 0x0, symName: __ZNSt3__118__constexpr_memcmpB7v160006IcEEiPKT_S3_m, symObjAddr: 0x6220, symBinAddr: 0x10000AED0, symSize: 0x30 }
  - { offsetInCU: 0x19778, offset: 0x2ABA7, size: 0x8, addend: 0x0, symName: __ZNSt3__112__to_addressB7v160006IKcEEPT_S3_, symObjAddr: 0x6300, symBinAddr: 0x10000AFB0, symSize: 0x10 }
  - { offsetInCU: 0x197E0, offset: 0x2AC0F, size: 0x8, addend: 0x0, symName: __ZNSt3__128__char_traits_length_checkedB7v160006INS_11char_traitsIcEEEEmPKNT_9char_typeE, symObjAddr: 0x64A0, symBinAddr: 0x10000B150, symSize: 0x20 }
  - { offsetInCU: 0x19815, offset: 0x2AC44, size: 0x8, addend: 0x0, symName: __ZNSt3__119__debug_db_insert_cB7v160006INS_6vectorIP14SyntaxTreeNodeNS_9allocatorIS3_EEEEEEvPT_, symObjAddr: 0x6770, symBinAddr: 0x10000B3D0, symSize: 0x10 }
  - { offsetInCU: 0x19846, offset: 0x2AC75, size: 0x8, addend: 0x0, symName: __ZNSt3__122__make_exception_guardB7v160006INS_6vectorIP14SyntaxTreeNodeNS_9allocatorIS3_EEE16__destroy_vectorEEENS_28__exception_guard_exceptionsIT_EES9_, symObjAddr: 0x6A20, symBinAddr: 0x10000B680, symSize: 0x40 }
  - { offsetInCU: 0x1987B, offset: 0x2ACAA, size: 0x8, addend: 0x0, symName: __ZNSt3__119__allocate_at_leastB7v160006INS_9allocatorIP14SyntaxTreeNodeEEEENS_19__allocation_resultINS_16allocator_traitsIT_E7pointerEEERS7_m, symObjAddr: 0x6D70, symBinAddr: 0x10000B9D0, symSize: 0x40 }
  - { offsetInCU: 0x198BE, offset: 0x2ACED, size: 0x8, addend: 0x0, symName: __ZNSt3__112__to_addressB7v160006IP14SyntaxTreeNodeEEPT_S4_, symObjAddr: 0x6FE0, symBinAddr: 0x10000BC40, symSize: 0x10 }
  - { offsetInCU: 0x198F3, offset: 0x2AD22, size: 0x8, addend: 0x0, symName: __ZNSt3__130__uninitialized_allocator_copyB7v160006INS_9allocatorIP14SyntaxTreeNodeEEPS3_S5_S5_EET2_RT_T0_T1_S6_, symObjAddr: 0x7070, symBinAddr: 0x10000BCD0, symSize: 0x100 }
  - { offsetInCU: 0x19991, offset: 0x2ADC0, size: 0x8, addend: 0x0, symName: __ZNSt3__122__make_exception_guardB7v160006INS_29_AllocatorDestroyRangeReverseINS_9allocatorIP14SyntaxTreeNodeEEPS4_EEEENS_28__exception_guard_exceptionsIT_EES9_, symObjAddr: 0x71D0, symBinAddr: 0x10000BE30, symSize: 0x60 }
  - { offsetInCU: 0x199ED, offset: 0x2AE1C, size: 0x8, addend: 0x0, symName: __ZNSt3__112construct_atB7v160006IP14SyntaxTreeNodeJRS2_EPS2_EEPT_S6_DpOT0_, symObjAddr: 0x7390, symBinAddr: 0x10000BFF0, symSize: 0x30 }
  - { offsetInCU: 0x19A5F, offset: 0x2AE8E, size: 0x8, addend: 0x0, symName: __ZNSt3__119__allocator_destroyB7v160006INS_9allocatorIP14SyntaxTreeNodeEENS_16reverse_iteratorIPS3_EES7_EEvRT_T0_T1_, symObjAddr: 0x7460, symBinAddr: 0x10000C0C0, symSize: 0x70 }
  - { offsetInCU: 0x19AC2, offset: 0x2AEF1, size: 0x8, addend: 0x0, symName: __ZNSt3__1neB7v160006IPP14SyntaxTreeNodeS3_EEbRKNS_16reverse_iteratorIT_EERKNS4_IT0_EE, symObjAddr: 0x7500, symBinAddr: 0x10000C160, symSize: 0x40 }
  - { offsetInCU: 0x19B0E, offset: 0x2AF3D, size: 0x8, addend: 0x0, symName: __ZNSt3__112__to_addressB7v160006INS_16reverse_iteratorIPP14SyntaxTreeNodeEEvEENS_5decayIDTclsr19__to_address_helperIT_EE6__callclsr3stdE7declvalIRKS7_EEEEE4typeES9_, symObjAddr: 0x7560, symBinAddr: 0x10000C1C0, symSize: 0x20 }
  - { offsetInCU: 0x19B44, offset: 0x2AF73, size: 0x8, addend: 0x0, symName: __ZNSt3__110destroy_atB7v160006IP14SyntaxTreeNodeLi0EEEvPT_, symObjAddr: 0x75C0, symBinAddr: 0x10000C220, symSize: 0x20 }
  - { offsetInCU: 0x19B7B, offset: 0x2AFAA, size: 0x8, addend: 0x0, symName: __ZNSt3__112__destroy_atB7v160006IP14SyntaxTreeNodeLi0EEEvPT_, symObjAddr: 0x75E0, symBinAddr: 0x10000C240, symSize: 0x10 }
  - { offsetInCU: 0x19BDC, offset: 0x2B00B, size: 0x8, addend: 0x0, symName: __ZNSt3__14prevB7v160006IPP14SyntaxTreeNodeEENS_9enable_ifIXsr25__is_cpp17_input_iteratorIT_EE5valueES5_E4typeES5_NS_15iterator_traitsIS5_E15difference_typeE, symObjAddr: 0x7660, symBinAddr: 0x10000C2C0, symSize: 0x50 }
  - { offsetInCU: 0x19C1F, offset: 0x2B04E, size: 0x8, addend: 0x0, symName: __ZNSt3__19__advanceB7v160006IPP14SyntaxTreeNodeEEvRT_NS_15iterator_traitsIS4_E15difference_typeENS_26random_access_iterator_tagE, symObjAddr: 0x7700, symBinAddr: 0x10000C360, symSize: 0x20 }
  - { offsetInCU: 0x19C68, offset: 0x2B097, size: 0x8, addend: 0x0, symName: __ZNSt3__118__debug_db_erase_cB7v160006INS_6vectorIP14SyntaxTreeNodeNS_9allocatorIS3_EEEEEEvPT_, symObjAddr: 0x78F0, symBinAddr: 0x10000C550, symSize: 0x10 }
  - { offsetInCU: 0x19C99, offset: 0x2B0C8, size: 0x8, addend: 0x0, symName: __ZNSt3__17getlineB7v160006IcNS_11char_traitsIcEENS_9allocatorIcEEEERNS_13basic_istreamIT_T0_EES9_RNS_12basic_stringIS6_S7_T1_EES6_, symObjAddr: 0x7C20, symBinAddr: 0x10000C880, symSize: 0x220 }
  - { offsetInCU: 0x19D59, offset: 0x2B188, size: 0x8, addend: 0x0, symName: __ZNSt3__125__debug_db_invalidate_allB7v160006INS_12basic_stringIcNS_11char_traitsIcEENS_9allocatorIcEEEEEEvPT_, symObjAddr: 0x8170, symBinAddr: 0x10000CDD0, symSize: 0x10 }
  - { offsetInCU: 0x19D8A, offset: 0x2B1B9, size: 0x8, addend: 0x0, symName: __ZNSt3__19use_facetB7v160006INS_5ctypeIcEEEERKT_RKNS_6localeE, symObjAddr: 0x8340, symBinAddr: 0x10000CFA0, symSize: 0x30 }
  - { offsetInCU: 0x1A175, offset: 0x2B5A4, size: 0x8, addend: 0x0, symName: __ZNSt3__116__pad_and_outputB7v160006IcNS_11char_traitsIcEEEENS_19ostreambuf_iteratorIT_T0_EES6_PKS4_S8_S8_RNS_8ios_baseES4_, symObjAddr: 0x89E0, symBinAddr: 0x10000D640, symSize: 0x220 }
  - { offsetInCU: 0x1A246, offset: 0x2B675, size: 0x8, addend: 0x0, symName: __ZNSt3__112__to_addressB7v160006IcEEPT_S2_, symObjAddr: 0x8DC0, symBinAddr: 0x10000DA20, symSize: 0x10 }
  - { offsetInCU: 0x1A8FA, offset: 0x2BD29, size: 0x8, addend: 0x0, symName: __ZSt28__throw_bad_array_new_lengthB7v160006v, symObjAddr: 0x2920, symBinAddr: 0x100007C30, symSize: 0x40 }
  - { offsetInCU: 0x1B9A1, offset: 0x2CDD0, size: 0x8, addend: 0x0, symName: __ZNSt3__16vectorINS_12basic_stringIcNS_11char_traitsIcEENS_9allocatorIcEEEENS4_IS6_EEE26__swap_out_circular_bufferERNS_14__split_bufferIS6_RS7_EE, symObjAddr: 0x2260, symBinAddr: 0x100007570, symSize: 0x130 }
  - { offsetInCU: 0x1BA7E, offset: 0x2CEAD, size: 0x8, addend: 0x0, symName: __ZNSt3__16vectorINS0_INS_12basic_stringIcNS_11char_traitsIcEENS_9allocatorIcEEEENS4_IS6_EEEENS4_IS8_EEE26__swap_out_circular_bufferERNS_14__split_bufferIS8_RS9_EE, symObjAddr: 0x4820, symBinAddr: 0x100009790, symSize: 0x130 }
  - { offsetInCU: 0x1DACC, offset: 0x2EEFB, size: 0x8, addend: 0x0, symName: __ZN6Parser37read_input_file_and_parse_into_tokensEv, symObjAddr: 0x0, symBinAddr: 0x1000056A0, symSize: 0x270 }
  - { offsetInCU: 0x1DC58, offset: 0x2F087, size: 0x8, addend: 0x0, symName: __ZNSt3__114basic_ifstreamIcNS_11char_traitsIcEEEC1ERKNS_12basic_stringIcS2_NS_9allocatorIcEEEEj, symObjAddr: 0x270, symBinAddr: 0x100005910, symSize: 0x160 }
  - { offsetInCU: 0x1DCA0, offset: 0x2F0CF, size: 0x8, addend: 0x0, symName: __ZNSt3__112basic_stringIcNS_11char_traitsIcEENS_9allocatorIcEEEC1B7v160006Ev, symObjAddr: 0x3D0, symBinAddr: 0x100005A70, symSize: 0x20 }
  - { offsetInCU: 0x1DCC8, offset: 0x2F0F7, size: 0x8, addend: 0x0, symName: __ZNSt3__16vectorINS_12basic_stringIcNS_11char_traitsIcEENS_9allocatorIcEEEENS4_IS6_EEEC1B7v160006Ev, symObjAddr: 0x3F0, symBinAddr: 0x100005A90, symSize: 0x20 }
  - { offsetInCU: 0x1DCF0, offset: 0x2F11F, size: 0x8, addend: 0x0, symName: __ZNKSt3__19basic_iosIcNS_11char_traitsIcEEEcvbB7v160006Ev, symObjAddr: 0x460, symBinAddr: 0x100005B00, symSize: 0x30 }
  - { offsetInCU: 0x1DD14, offset: 0x2F143, size: 0x8, addend: 0x0, symName: __ZNSt3__16vectorINS_12basic_stringIcNS_11char_traitsIcEENS_9allocatorIcEEEENS4_IS6_EEE5clearB7v160006Ev, symObjAddr: 0x490, symBinAddr: 0x100005B30, symSize: 0x50 }
  - { offsetInCU: 0x1DDA6, offset: 0x2F1D5, size: 0x8, addend: 0x0, symName: __ZNSt3__118basic_stringstreamIcNS_11char_traitsIcEENS_9allocatorIcEEEC1B7v160006ERKNS_12basic_stringIcS2_S4_EEj, symObjAddr: 0x4E0, symBinAddr: 0x100005B80, symSize: 0x100 }
  - { offsetInCU: 0x1DDEC, offset: 0x2F21B, size: 0x8, addend: 0x0, symName: __ZNSt3__16vectorINS_12basic_stringIcNS_11char_traitsIcEENS_9allocatorIcEEEENS4_IS6_EEE9push_backB7v160006ERKS6_, symObjAddr: 0x8D0, symBinAddr: 0x100005F70, symSize: 0x60 }
  - { offsetInCU: 0x1DE22, offset: 0x2F251, size: 0x8, addend: 0x0, symName: __ZNSt3__16vectorINS0_INS_12basic_stringIcNS_11char_traitsIcEENS_9allocatorIcEEEENS4_IS6_EEEENS4_IS8_EEE9push_backB7v160006ERKS8_, symObjAddr: 0x930, symBinAddr: 0x100005FD0, symSize: 0x60 }
  - { offsetInCU: 0x1DE5D, offset: 0x2F28C, size: 0x8, addend: 0x0, symName: __ZNSt3__118basic_stringstreamIcNS_11char_traitsIcEENS_9allocatorIcEEED1Ev, symObjAddr: 0x990, symBinAddr: 0x100006030, symSize: 0x40 }
  - { offsetInCU: 0x1DE8E, offset: 0x2F2BD, size: 0x8, addend: 0x0, symName: __ZNSt3__114basic_ifstreamIcNS_11char_traitsIcEEED1Ev, symObjAddr: 0xA20, symBinAddr: 0x100006070, symSize: 0x40 }
  - { offsetInCU: 0x1DEBA, offset: 0x2F2E9, size: 0x8, addend: 0x0, symName: __ZN6Parser20generate_syntax_treeEv, symObjAddr: 0xA60, symBinAddr: 0x1000060B0, symSize: 0x10 }
  - { offsetInCU: 0x1DEE1, offset: 0x2F310, size: 0x8, addend: 0x0, symName: __ZN6Parser28get_next_statement_node_typeERi, symObjAddr: 0xA70, symBinAddr: 0x1000060C0, symSize: 0x170 }
  - { offsetInCU: 0x1DF31, offset: 0x2F360, size: 0x8, addend: 0x0, symName: __ZNSt3__16vectorINS0_INS_12basic_stringIcNS_11char_traitsIcEENS_9allocatorIcEEEENS4_IS6_EEEENS4_IS8_EEEixB7v160006Em, symObjAddr: 0xBE0, symBinAddr: 0x100006230, symSize: 0x20 }
  - { offsetInCU: 0x1DF67, offset: 0x2F396, size: 0x8, addend: 0x0, symName: __ZNSt3__16vectorINS_12basic_stringIcNS_11char_traitsIcEENS_9allocatorIcEEEENS4_IS6_EEEixB7v160006Em, symObjAddr: 0xC90, symBinAddr: 0x1000062B0, symSize: 0x20 }
  - { offsetInCU: 0x1DF9D, offset: 0x2F3CC, size: 0x8, addend: 0x0, symName: __ZNSt3__113basic_ostreamIcNS_11char_traitsIcEEElsB7v160006EPFRS3_S4_E, symObjAddr: 0xCF0, symBinAddr: 0x100006310, symSize: 0x20 }
  - { offsetInCU: 0x1DFCF, offset: 0x2F3FE, size: 0x8, addend: 0x0, symName: __ZN6Parser30binary_operation_token_to_enumERKNSt3__112basic_stringIcNS0_11char_traitsIcEENS0_9allocatorIcEEEE, symObjAddr: 0xD60, symBinAddr: 0x100006380, symSize: 0x240 }
  - { offsetInCU: 0x1E004, offset: 0x2F433, size: 0x8, addend: 0x0, symName: __ZN6Parser22token_is_variable_nameERKNSt3__112basic_stringIcNS0_11char_traitsIcEENS0_9allocatorIcEEEE, symObjAddr: 0xFA0, symBinAddr: 0x1000065C0, symSize: 0x60 }
  - { offsetInCU: 0x1E047, offset: 0x2F476, size: 0x8, addend: 0x0, symName: __ZNKSt3__112basic_stringIcNS_11char_traitsIcEENS_9allocatorIcEEEixB7v160006Em, symObjAddr: 0x1000, symBinAddr: 0x100006620, symSize: 0x30 }
  - { offsetInCU: 0x1E07A, offset: 0x2F4A9, size: 0x8, addend: 0x0, symName: __ZN6Parser28get_literal_value_from_tokenERKNSt3__112basic_stringIcNS0_11char_traitsIcEENS0_9allocatorIcEEEE, symObjAddr: 0x1030, symBinAddr: 0x100006650, symSize: 0x30 }
  - { offsetInCU: 0x1E0AF, offset: 0x2F4DE, size: 0x8, addend: 0x0, symName: __ZN6Parser27parse_binary_operation_nodeERi, symObjAddr: 0x1060, symBinAddr: 0x100006680, symSize: 0x20 }
  - { offsetInCU: 0x1E0E4, offset: 0x2F513, size: 0x8, addend: 0x0, symName: __ZN6Parser19parse_operand_tokenERKNSt3__112basic_stringIcNS0_11char_traitsIcEENS0_9allocatorIcEEEE, symObjAddr: 0x1080, symBinAddr: 0x1000066A0, symSize: 0x170 }
  - { offsetInCU: 0x1E1C7, offset: 0x2F5F6, size: 0x8, addend: 0x0, symName: __ZN11OperandNodeC1E11OperandTypeiR9Variables, symObjAddr: 0x11F0, symBinAddr: 0x100006810, symSize: 0x30 }
  - { offsetInCU: 0x1E219, offset: 0x2F648, size: 0x8, addend: 0x0, symName: __ZN11OperandNodeC1E11OperandTypeNSt3__112basic_stringIcNS1_11char_traitsIcEENS1_9allocatorIcEEEER9Variables, symObjAddr: 0x1220, symBinAddr: 0x100006840, symSize: 0x30 }
  - { offsetInCU: 0x1E26C, offset: 0x2F69B, size: 0x8, addend: 0x0, symName: __ZN6Parser21parse_assignment_nodeERi, symObjAddr: 0x1250, symBinAddr: 0x100006870, symSize: 0x3C0 }
  - { offsetInCU: 0x1E3B4, offset: 0x2F7E3, size: 0x8, addend: 0x0, symName: __ZN19BinaryOperationNodeC1E15BinaryOperationP14SyntaxTreeNodeS2_R9Variables, symObjAddr: 0x1610, symBinAddr: 0x100006C30, symSize: 0x40 }
  - { offsetInCU: 0x1E47E, offset: 0x2F8AD, size: 0x8, addend: 0x0, symName: __ZN14AssignmentNodeC1ENSt3__112basic_stringIcNS0_11char_traitsIcEENS0_9allocatorIcEEEEP14SyntaxTreeNodeR9Variables, symObjAddr: 0x1650, symBinAddr: 0x100006C70, symSize: 0x30 }
  - { offsetInCU: 0x1E4D1, offset: 0x2F900, size: 0x8, addend: 0x0, symName: __ZN6Parser27parse_single_statement_nodeERi, symObjAddr: 0x1680, symBinAddr: 0x100006CA0, symSize: 0x60 }
  - { offsetInCU: 0x1E522, offset: 0x2F951, size: 0x8, addend: 0x0, symName: __ZN6Parser11parse_blockERi, symObjAddr: 0x16E0, symBinAddr: 0x100006D00, symSize: 0xF0 }
  - { offsetInCU: 0x1E565, offset: 0x2F994, size: 0x8, addend: 0x0, symName: __ZNSt3__16vectorIP14SyntaxTreeNodeNS_9allocatorIS2_EEEC1B7v160006Ev, symObjAddr: 0x17D0, symBinAddr: 0x100006DF0, symSize: 0x20 }
  - { offsetInCU: 0x1E58D, offset: 0x2F9BC, size: 0x8, addend: 0x0, symName: __ZNKSt3__16vectorIP14SyntaxTreeNodeNS_9allocatorIS2_EEE4sizeB7v160006Ev, symObjAddr: 0x17F0, symBinAddr: 0x100006E10, symSize: 0x20 }
  - { offsetInCU: 0x1E5B1, offset: 0x2F9E0, size: 0x8, addend: 0x0, symName: __ZNSt3__16vectorIP14SyntaxTreeNodeNS_9allocatorIS2_EEEixB7v160006Em, symObjAddr: 0x1810, symBinAddr: 0x100006E30, symSize: 0x20 }
  - { offsetInCU: 0x1E640, offset: 0x2FA6F, size: 0x8, addend: 0x0, symName: __ZN21StatementSequenceNodeC1ERNSt3__16vectorIP14SyntaxTreeNodeNS0_9allocatorIS3_EEEER9Variables, symObjAddr: 0x1830, symBinAddr: 0x100006E50, symSize: 0x30 }
  - { offsetInCU: 0x1E684, offset: 0x2FAB3, size: 0x8, addend: 0x0, symName: __ZNSt3__16vectorIP14SyntaxTreeNodeNS_9allocatorIS2_EEED1B7v160006Ev, symObjAddr: 0x1860, symBinAddr: 0x100006E80, symSize: 0x20 }
  - { offsetInCU: 0x1E6AC, offset: 0x2FADB, size: 0x8, addend: 0x0, symName: __ZN6Parser10parse_fileEv, symObjAddr: 0x1880, symBinAddr: 0x100006EA0, symSize: 0x50 }
  - { offsetInCU: 0x1E6E1, offset: 0x2FB10, size: 0x8, addend: 0x0, symName: __ZNSt3__112basic_stringIcNS_11char_traitsIcEENS_9allocatorIcEEEC2B7v160006Ev, symObjAddr: 0x18D0, symBinAddr: 0x100006EF0, symSize: 0x50 }
  - { offsetInCU: 0x1E70E, offset: 0x2FB3D, size: 0x8, addend: 0x0, symName: __ZNSt3__112basic_stringIcNS_11char_traitsIcEENS_9allocatorIcEEE14__default_initB7v160006Ev, symObjAddr: 0x1970, symBinAddr: 0x100006F40, symSize: 0x50 }
  - { offsetInCU: 0x1E732, offset: 0x2FB61, size: 0x8, addend: 0x0, symName: __ZNSt3__117__compressed_pairINS_12basic_stringIcNS_11char_traitsIcEENS_9allocatorIcEEE5__repES5_E5firstB7v160006Ev, symObjAddr: 0x1A50, symBinAddr: 0x100006F90, symSize: 0x20 }
  - { offsetInCU: 0x1E756, offset: 0x2FB85, size: 0x8, addend: 0x0, symName: __ZNSt3__122__compressed_pair_elemINS_12basic_stringIcNS_11char_traitsIcEENS_9allocatorIcEEE5__repELi0ELb0EE5__getB7v160006Ev, symObjAddr: 0x1A70, symBinAddr: 0x100006FB0, symSize: 0x10 }
  - { offsetInCU: 0x1E77A, offset: 0x2FBA9, size: 0x8, addend: 0x0, symName: __ZNSt3__16vectorINS_12basic_stringIcNS_11char_traitsIcEENS_9allocatorIcEEEENS4_IS6_EEEC2B7v160006Ev, symObjAddr: 0x1A80, symBinAddr: 0x100006FC0, symSize: 0x60 }
  - { offsetInCU: 0x1E7A7, offset: 0x2FBD6, size: 0x8, addend: 0x0, symName: __ZNSt3__117__compressed_pairIPNS_12basic_stringIcNS_11char_traitsIcEENS_9allocatorIcEEEENS4_IS6_EEEC1B7v160006IDnNS_18__default_init_tagEEEOT_OT0_, symObjAddr: 0x1AE0, symBinAddr: 0x100007020, symSize: 0x30 }
  - { offsetInCU: 0x1E7FD, offset: 0x2FC2C, size: 0x8, addend: 0x0, symName: __ZNSt3__117__compressed_pairIPNS_12basic_stringIcNS_11char_traitsIcEENS_9allocatorIcEEEENS4_IS6_EEEC2B7v160006IDnNS_18__default_init_tagEEEOT_OT0_, symObjAddr: 0x1B20, symBinAddr: 0x100007060, symSize: 0x40 }
  - { offsetInCU: 0x1E853, offset: 0x2FC82, size: 0x8, addend: 0x0, symName: __ZNSt3__122__compressed_pair_elemIPNS_12basic_stringIcNS_11char_traitsIcEENS_9allocatorIcEEEELi0ELb0EEC2B7v160006IDnvEEOT_, symObjAddr: 0x1B60, symBinAddr: 0x1000070A0, symSize: 0x20 }
  - { offsetInCU: 0x1E893, offset: 0x2FCC2, size: 0x8, addend: 0x0, symName: __ZNSt3__122__compressed_pair_elemINS_9allocatorINS_12basic_stringIcNS_11char_traitsIcEENS1_IcEEEEEELi1ELb1EEC2B7v160006ENS_18__default_init_tagE, symObjAddr: 0x1B80, symBinAddr: 0x1000070C0, symSize: 0x20 }
  - { offsetInCU: 0x1E8C5, offset: 0x2FCF4, size: 0x8, addend: 0x0, symName: __ZNSt3__19allocatorINS_12basic_stringIcNS_11char_traitsIcEENS0_IcEEEEEC2B7v160006Ev, symObjAddr: 0x1BA0, symBinAddr: 0x1000070E0, symSize: 0x20 }
  - { offsetInCU: 0x1E8ED, offset: 0x2FD1C, size: 0x8, addend: 0x0, symName: __ZNSt3__116__non_trivial_ifILb1ENS_9allocatorINS_12basic_stringIcNS_11char_traitsIcEENS1_IcEEEEEEEC2B7v160006Ev, symObjAddr: 0x1BC0, symBinAddr: 0x100007100, symSize: 0x10 }
  - { offsetInCU: 0x1E915, offset: 0x2FD44, size: 0x8, addend: 0x0, symName: __ZNKSt3__16vectorINS_12basic_stringIcNS_11char_traitsIcEENS_9allocatorIcEEEENS4_IS6_EEE17__annotate_shrinkB7v160006Em, symObjAddr: 0x1BF0, symBinAddr: 0x100007110, symSize: 0xA0 }
  - { offsetInCU: 0x1E948, offset: 0x2FD77, size: 0x8, addend: 0x0, symName: __ZNSt3__16vectorINS_12basic_stringIcNS_11char_traitsIcEENS_9allocatorIcEEEENS4_IS6_EEE9__end_capB7v160006Ev, symObjAddr: 0x1EB0, symBinAddr: 0x1000071C0, symSize: 0x20 }
  - { offsetInCU: 0x1E96C, offset: 0x2FD9B, size: 0x8, addend: 0x0, symName: __ZNSt3__16vectorINS_12basic_stringIcNS_11char_traitsIcEENS_9allocatorIcEEEENS4_IS6_EEE22__construct_one_at_endB7v160006IJRKS6_EEEvDpOT_, symObjAddr: 0x1ED0, symBinAddr: 0x1000071E0, symSize: 0x90 }
  - { offsetInCU: 0x1E9B9, offset: 0x2FDE8, size: 0x8, addend: 0x0, symName: __ZNSt3__16vectorINS_12basic_stringIcNS_11char_traitsIcEENS_9allocatorIcEEEENS4_IS6_EEE21__push_back_slow_pathIRKS6_EEvOT_, symObjAddr: 0x1F60, symBinAddr: 0x100007270, symSize: 0xD0 }
  - { offsetInCU: 0x1EA16, offset: 0x2FE45, size: 0x8, addend: 0x0, symName: __ZNSt3__117__compressed_pairIPNS_12basic_stringIcNS_11char_traitsIcEENS_9allocatorIcEEEENS4_IS6_EEE5firstB7v160006Ev, symObjAddr: 0x2030, symBinAddr: 0x100007340, symSize: 0x20 }
  - { offsetInCU: 0x1EA3A, offset: 0x2FE69, size: 0x8, addend: 0x0, symName: __ZNSt3__122__compressed_pair_elemIPNS_12basic_stringIcNS_11char_traitsIcEENS_9allocatorIcEEEELi0ELb0EE5__getB7v160006Ev, symObjAddr: 0x2050, symBinAddr: 0x100007360, symSize: 0x10 }
  - { offsetInCU: 0x1EA77, offset: 0x2FEA6, size: 0x8, addend: 0x0, symName: __ZNSt3__16vectorINS_12basic_stringIcNS_11char_traitsIcEENS_9allocatorIcEEEENS4_IS6_EEE21_ConstructTransactionC1B7v160006ERS8_m, symObjAddr: 0x2060, symBinAddr: 0x100007370, symSize: 0x30 }
  - { offsetInCU: 0x1EABD, offset: 0x2FEEC, size: 0x8, addend: 0x0, symName: __ZNSt3__116allocator_traitsINS_9allocatorINS_12basic_stringIcNS_11char_traitsIcEENS1_IcEEEEEEE9constructB7v160006IS6_JRKS6_EvvEEvRS7_PT_DpOT0_, symObjAddr: 0x2090, symBinAddr: 0x1000073A0, symSize: 0x30 }
  - { offsetInCU: 0x1EB11, offset: 0x2FF40, size: 0x8, addend: 0x0, symName: __ZNSt3__16vectorINS_12basic_stringIcNS_11char_traitsIcEENS_9allocatorIcEEEENS4_IS6_EEE21_ConstructTransactionD1B7v160006Ev, symObjAddr: 0x20C0, symBinAddr: 0x1000073D0, symSize: 0x20 }
  - { offsetInCU: 0x1EB39, offset: 0x2FF68, size: 0x8, addend: 0x0, symName: __ZNSt3__16vectorINS_12basic_stringIcNS_11char_traitsIcEENS_9allocatorIcEEEENS4_IS6_EEE21_ConstructTransactionC2B7v160006ERS8_m, symObjAddr: 0x20E0, symBinAddr: 0x1000073F0, symSize: 0x40 }
  - { offsetInCU: 0x1EB7F, offset: 0x2FFAE, size: 0x8, addend: 0x0, symName: __ZNSt3__16vectorINS_12basic_stringIcNS_11char_traitsIcEENS_9allocatorIcEEEENS4_IS6_EEE21_ConstructTransactionD2B7v160006Ev, symObjAddr: 0x2160, symBinAddr: 0x100007470, symSize: 0x20 }
  - { offsetInCU: 0x1EBA7, offset: 0x2FFD6, size: 0x8, addend: 0x0, symName: __ZNKSt3__16vectorINS_12basic_stringIcNS_11char_traitsIcEENS_9allocatorIcEEEENS4_IS6_EEE11__recommendB7v160006Em, symObjAddr: 0x2180, symBinAddr: 0x100007490, symSize: 0xA0 }
  - { offsetInCU: 0x1EBFB, offset: 0x3002A, size: 0x8, addend: 0x0, symName: __ZNSt3__114__split_bufferINS_12basic_stringIcNS_11char_traitsIcEENS_9allocatorIcEEEERNS4_IS6_EEEC1EmmS8_, symObjAddr: 0x2220, symBinAddr: 0x100007530, symSize: 0x40 }
  - { offsetInCU: 0x1EC4F, offset: 0x3007E, size: 0x8, addend: 0x0, symName: __ZNSt3__114__split_bufferINS_12basic_stringIcNS_11char_traitsIcEENS_9allocatorIcEEEERNS4_IS6_EEED1Ev, symObjAddr: 0x2390, symBinAddr: 0x1000076A0, symSize: 0x20 }
  - { offsetInCU: 0x1EC79, offset: 0x300A8, size: 0x8, addend: 0x0, symName: __ZNKSt3__16vectorINS_12basic_stringIcNS_11char_traitsIcEENS_9allocatorIcEEEENS4_IS6_EEE8max_sizeEv, symObjAddr: 0x23B0, symBinAddr: 0x1000076C0, symSize: 0x60 }
  - { offsetInCU: 0x1ECA0, offset: 0x300CF, size: 0x8, addend: 0x0, symName: __ZNKSt3__16vectorINS_12basic_stringIcNS_11char_traitsIcEENS_9allocatorIcEEEENS4_IS6_EEE20__throw_length_errorB7v160006Ev, symObjAddr: 0x2410, symBinAddr: 0x100007720, symSize: 0x20 }
  - { offsetInCU: 0x1ECCE, offset: 0x300FD, size: 0x8, addend: 0x0, symName: __ZNSt3__116allocator_traitsINS_9allocatorINS_12basic_stringIcNS_11char_traitsIcEENS1_IcEEEEEEE8max_sizeB7v160006IS7_vvEEmRKS7_, symObjAddr: 0x2490, symBinAddr: 0x1000077A0, symSize: 0x30 }
  - { offsetInCU: 0x1ECF9, offset: 0x30128, size: 0x8, addend: 0x0, symName: __ZNKSt3__16vectorINS_12basic_stringIcNS_11char_traitsIcEENS_9allocatorIcEEEENS4_IS6_EEE7__allocB7v160006Ev, symObjAddr: 0x24C0, symBinAddr: 0x1000077D0, symSize: 0x20 }
  - { offsetInCU: 0x1ED1D, offset: 0x3014C, size: 0x8, addend: 0x0, symName: __ZNSt3__114numeric_limitsIlE3maxB7v160006Ev, symObjAddr: 0x24E0, symBinAddr: 0x1000077F0, symSize: 0x10 }
  - { offsetInCU: 0x1ED3B, offset: 0x3016A, size: 0x8, addend: 0x0, symName: __ZNKSt3__16__lessImmEclB7v160006ERKmS3_, symObjAddr: 0x2540, symBinAddr: 0x100007850, symSize: 0x30 }
  - { offsetInCU: 0x1ED7B, offset: 0x301AA, size: 0x8, addend: 0x0, symName: __ZNSt3__114numeric_limitsImE3maxB7v160006Ev, symObjAddr: 0x2570, symBinAddr: 0x100007880, symSize: 0x10 }
  - { offsetInCU: 0x1ED8F, offset: 0x301BE, size: 0x8, addend: 0x0, symName: __ZNSt3__123__libcpp_numeric_limitsImLb1EE3maxB7v160006Ev, symObjAddr: 0x2580, symBinAddr: 0x100007890, symSize: 0x10 }
  - { offsetInCU: 0x1EDA3, offset: 0x301D2, size: 0x8, addend: 0x0, symName: __ZNKSt3__117__compressed_pairIPNS_12basic_stringIcNS_11char_traitsIcEENS_9allocatorIcEEEENS4_IS6_EEE6secondB7v160006Ev, symObjAddr: 0x2590, symBinAddr: 0x1000078A0, symSize: 0x20 }
  - { offsetInCU: 0x1EDC7, offset: 0x301F6, size: 0x8, addend: 0x0, symName: __ZNKSt3__122__compressed_pair_elemINS_9allocatorINS_12basic_stringIcNS_11char_traitsIcEENS1_IcEEEEEELi1ELb1EE5__getB7v160006Ev, symObjAddr: 0x25B0, symBinAddr: 0x1000078C0, symSize: 0x10 }
  - { offsetInCU: 0x1EDEB, offset: 0x3021A, size: 0x8, addend: 0x0, symName: __ZNSt3__123__libcpp_numeric_limitsIlLb1EE3maxB7v160006Ev, symObjAddr: 0x25C0, symBinAddr: 0x1000078D0, symSize: 0x10 }
  - { offsetInCU: 0x1EDFF, offset: 0x3022E, size: 0x8, addend: 0x0, symName: __ZNSt12length_errorC1B7v160006EPKc, symObjAddr: 0x2640, symBinAddr: 0x100007950, symSize: 0x30 }
  - { offsetInCU: 0x1EE35, offset: 0x30264, size: 0x8, addend: 0x0, symName: __ZNSt12length_errorC2B7v160006EPKc, symObjAddr: 0x2670, symBinAddr: 0x100007980, symSize: 0x40 }
  - { offsetInCU: 0x1EE6B, offset: 0x3029A, size: 0x8, addend: 0x0, symName: __ZNSt3__114__split_bufferINS_12basic_stringIcNS_11char_traitsIcEENS_9allocatorIcEEEERNS4_IS6_EEEC2EmmS8_, symObjAddr: 0x2700, symBinAddr: 0x100007A10, symSize: 0xC0 }
  - { offsetInCU: 0x1EEDC, offset: 0x3030B, size: 0x8, addend: 0x0, symName: __ZNSt3__117__compressed_pairIPNS_12basic_stringIcNS_11char_traitsIcEENS_9allocatorIcEEEERNS4_IS6_EEEC1B7v160006IDnS9_EEOT_OT0_, symObjAddr: 0x27C0, symBinAddr: 0x100007AD0, symSize: 0x30 }
  - { offsetInCU: 0x1EF32, offset: 0x30361, size: 0x8, addend: 0x0, symName: __ZNSt3__114__split_bufferINS_12basic_stringIcNS_11char_traitsIcEENS_9allocatorIcEEEERNS4_IS6_EEE7__allocB7v160006Ev, symObjAddr: 0x2830, symBinAddr: 0x100007B40, symSize: 0x20 }
  - { offsetInCU: 0x1EF56, offset: 0x30385, size: 0x8, addend: 0x0, symName: __ZNSt3__114__split_bufferINS_12basic_stringIcNS_11char_traitsIcEENS_9allocatorIcEEEERNS4_IS6_EEE9__end_capB7v160006Ev, symObjAddr: 0x2850, symBinAddr: 0x100007B60, symSize: 0x20 }
  - { offsetInCU: 0x1EF7A, offset: 0x303A9, size: 0x8, addend: 0x0, symName: __ZNSt3__117__compressed_pairIPNS_12basic_stringIcNS_11char_traitsIcEENS_9allocatorIcEEEERNS4_IS6_EEEC2B7v160006IDnS9_EEOT_OT0_, symObjAddr: 0x2870, symBinAddr: 0x100007B80, symSize: 0x40 }
  - { offsetInCU: 0x1EFD0, offset: 0x303FF, size: 0x8, addend: 0x0, symName: __ZNSt3__122__compressed_pair_elemIRNS_9allocatorINS_12basic_stringIcNS_11char_traitsIcEENS1_IcEEEEEELi1ELb0EEC2B7v160006IS8_vEEOT_, symObjAddr: 0x28B0, symBinAddr: 0x100007BC0, symSize: 0x20 }
  - { offsetInCU: 0x1F010, offset: 0x3043F, size: 0x8, addend: 0x0, symName: __ZNSt3__19allocatorINS_12basic_stringIcNS_11char_traitsIcEENS0_IcEEEEE8allocateB7v160006Em, symObjAddr: 0x28D0, symBinAddr: 0x100007BE0, symSize: 0x50 }
  - { offsetInCU: 0x1F042, offset: 0x30471, size: 0x8, addend: 0x0, symName: __ZNSt3__117__compressed_pairIPNS_12basic_stringIcNS_11char_traitsIcEENS_9allocatorIcEEEERNS4_IS6_EEE6secondB7v160006Ev, symObjAddr: 0x2A30, symBinAddr: 0x100007D20, symSize: 0x20 }
  - { offsetInCU: 0x1F066, offset: 0x30495, size: 0x8, addend: 0x0, symName: __ZNSt3__122__compressed_pair_elemIRNS_9allocatorINS_12basic_stringIcNS_11char_traitsIcEENS1_IcEEEEEELi1ELb0EE5__getB7v160006Ev, symObjAddr: 0x2A50, symBinAddr: 0x100007D40, symSize: 0x20 }
  - { offsetInCU: 0x1F08A, offset: 0x304B9, size: 0x8, addend: 0x0, symName: __ZNSt3__117__compressed_pairIPNS_12basic_stringIcNS_11char_traitsIcEENS_9allocatorIcEEEERNS4_IS6_EEE5firstB7v160006Ev, symObjAddr: 0x2A70, symBinAddr: 0x100007D60, symSize: 0x20 }
  - { offsetInCU: 0x1F0AE, offset: 0x304DD, size: 0x8, addend: 0x0, symName: __ZNSt3__116reverse_iteratorIPNS_12basic_stringIcNS_11char_traitsIcEENS_9allocatorIcEEEEEC1B7v160006ES7_, symObjAddr: 0x2CC0, symBinAddr: 0x100007F00, symSize: 0x30 }
  - { offsetInCU: 0x1F0E4, offset: 0x30513, size: 0x8, addend: 0x0, symName: __ZNKSt3__116reverse_iteratorIPNS_12basic_stringIcNS_11char_traitsIcEENS_9allocatorIcEEEEE4baseB7v160006Ev, symObjAddr: 0x2CF0, symBinAddr: 0x100007F30, symSize: 0x20 }
  - { offsetInCU: 0x1F108, offset: 0x30537, size: 0x8, addend: 0x0, symName: __ZNKSt3__16vectorINS_12basic_stringIcNS_11char_traitsIcEENS_9allocatorIcEEEENS4_IS6_EEE14__annotate_newB7v160006Em, symObjAddr: 0x2D50, symBinAddr: 0x100007F90, symSize: 0xA0 }
  - { offsetInCU: 0x1F13B, offset: 0x3056A, size: 0x8, addend: 0x0, symName: __ZNSt3__129_AllocatorDestroyRangeReverseINS_9allocatorINS_12basic_stringIcNS_11char_traitsIcEENS1_IcEEEEEENS_16reverse_iteratorIPS6_EEEC1B7v160006ERS7_RSA_SD_, symObjAddr: 0x2E50, symBinAddr: 0x100008090, symSize: 0x40 }
  - { offsetInCU: 0x1F195, offset: 0x305C4, size: 0x8, addend: 0x0, symName: __ZNSt3__116allocator_traitsINS_9allocatorINS_12basic_stringIcNS_11char_traitsIcEENS1_IcEEEEEEE9constructB7v160006IS6_JS6_EvvEEvRS7_PT_DpOT0_, symObjAddr: 0x2ED0, symBinAddr: 0x100008110, symSize: 0x30 }
  - { offsetInCU: 0x1F1E9, offset: 0x30618, size: 0x8, addend: 0x0, symName: __ZNKSt3__116reverse_iteratorIPNS_12basic_stringIcNS_11char_traitsIcEENS_9allocatorIcEEEEEdeB7v160006Ev, symObjAddr: 0x2F20, symBinAddr: 0x100008160, symSize: 0x30 }
  - { offsetInCU: 0x1F21B, offset: 0x3064A, size: 0x8, addend: 0x0, symName: __ZNSt3__116reverse_iteratorIPNS_12basic_stringIcNS_11char_traitsIcEENS_9allocatorIcEEEEEppB7v160006Ev, symObjAddr: 0x2F50, symBinAddr: 0x100008190, symSize: 0x20 }
  - { offsetInCU: 0x1F23F, offset: 0x3066E, size: 0x8, addend: 0x0, symName: __ZNSt3__128__exception_guard_exceptionsINS_29_AllocatorDestroyRangeReverseINS_9allocatorINS_12basic_stringIcNS_11char_traitsIcEENS2_IcEEEEEENS_16reverse_iteratorIPS7_EEEEE10__completeB7v160006Ev, symObjAddr: 0x2F70, symBinAddr: 0x1000081B0, symSize: 0x20 }
  - { offsetInCU: 0x1F263, offset: 0x30692, size: 0x8, addend: 0x0, symName: __ZNSt3__128__exception_guard_exceptionsINS_29_AllocatorDestroyRangeReverseINS_9allocatorINS_12basic_stringIcNS_11char_traitsIcEENS2_IcEEEEEENS_16reverse_iteratorIPS7_EEEEED1B7v160006Ev, symObjAddr: 0x2F90, symBinAddr: 0x1000081D0, symSize: 0x20 }
  - { offsetInCU: 0x1F28B, offset: 0x306BA, size: 0x8, addend: 0x0, symName: __ZNSt3__128__exception_guard_exceptionsINS_29_AllocatorDestroyRangeReverseINS_9allocatorINS_12basic_stringIcNS_11char_traitsIcEENS2_IcEEEEEENS_16reverse_iteratorIPS7_EEEEEC1B7v160006ESC_, symObjAddr: 0x2FB0, symBinAddr: 0x1000081F0, symSize: 0x40 }
  - { offsetInCU: 0x1F2C1, offset: 0x306F0, size: 0x8, addend: 0x0, symName: __ZNSt3__128__exception_guard_exceptionsINS_29_AllocatorDestroyRangeReverseINS_9allocatorINS_12basic_stringIcNS_11char_traitsIcEENS2_IcEEEEEENS_16reverse_iteratorIPS7_EEEEEC2B7v160006ESC_, symObjAddr: 0x2FF0, symBinAddr: 0x100008230, symSize: 0x30 }
  - { offsetInCU: 0x1F2F7, offset: 0x30726, size: 0x8, addend: 0x0, symName: __ZNSt3__129_AllocatorDestroyRangeReverseINS_9allocatorINS_12basic_stringIcNS_11char_traitsIcEENS1_IcEEEEEENS_16reverse_iteratorIPS6_EEEC2B7v160006ERS7_RSA_SD_, symObjAddr: 0x3020, symBinAddr: 0x100008260, symSize: 0x40 }
  - { offsetInCU: 0x1F34C, offset: 0x3077B, size: 0x8, addend: 0x0, symName: __ZNSt3__112basic_stringIcNS_11char_traitsIcEENS_9allocatorIcEEEC1B7v160006EOS5_, symObjAddr: 0x30A0, symBinAddr: 0x1000082E0, symSize: 0x30 }
  - { offsetInCU: 0x1F383, offset: 0x307B2, size: 0x8, addend: 0x0, symName: __ZNSt3__112basic_stringIcNS_11char_traitsIcEENS_9allocatorIcEEEC2B7v160006EOS5_, symObjAddr: 0x30D0, symBinAddr: 0x100008310, symSize: 0x80 }
  - { offsetInCU: 0x1F3BA, offset: 0x307E9, size: 0x8, addend: 0x0, symName: __ZNKSt3__112basic_stringIcNS_11char_traitsIcEENS_9allocatorIcEEE9__is_longB7v160006Ev, symObjAddr: 0x3150, symBinAddr: 0x100008390, symSize: 0x30 }
  - { offsetInCU: 0x1F3DE, offset: 0x3080D, size: 0x8, addend: 0x0, symName: __ZNKSt3__117__compressed_pairINS_12basic_stringIcNS_11char_traitsIcEENS_9allocatorIcEEE5__repES5_E5firstB7v160006Ev, symObjAddr: 0x3190, symBinAddr: 0x1000083D0, symSize: 0x20 }
  - { offsetInCU: 0x1F402, offset: 0x30831, size: 0x8, addend: 0x0, symName: __ZNKSt3__122__compressed_pair_elemINS_12basic_stringIcNS_11char_traitsIcEENS_9allocatorIcEEE5__repELi0ELb0EE5__getB7v160006Ev, symObjAddr: 0x31B0, symBinAddr: 0x1000083F0, symSize: 0x10 }
  - { offsetInCU: 0x1F42B, offset: 0x3085A, size: 0x8, addend: 0x0, symName: __ZNSt3__119__to_address_helperINS_16reverse_iteratorIPNS_12basic_stringIcNS_11char_traitsIcEENS_9allocatorIcEEEEEEvE6__callB7v160006ERKS9_, symObjAddr: 0x31C0, symBinAddr: 0x100008400, symSize: 0x40 }
  - { offsetInCU: 0x1F44D, offset: 0x3087C, size: 0x8, addend: 0x0, symName: __ZNKSt3__116reverse_iteratorIPNS_12basic_stringIcNS_11char_traitsIcEENS_9allocatorIcEEEEEptB7v160006Ev, symObjAddr: 0x3200, symBinAddr: 0x100008440, symSize: 0x30 }
  - { offsetInCU: 0x1F471, offset: 0x308A0, size: 0x8, addend: 0x0, symName: __ZNSt3__128__exception_guard_exceptionsINS_29_AllocatorDestroyRangeReverseINS_9allocatorINS_12basic_stringIcNS_11char_traitsIcEENS2_IcEEEEEENS_16reverse_iteratorIPS7_EEEEED2B7v160006Ev, symObjAddr: 0x3300, symBinAddr: 0x100008540, symSize: 0x40 }
  - { offsetInCU: 0x1F499, offset: 0x308C8, size: 0x8, addend: 0x0, symName: __ZNKSt3__129_AllocatorDestroyRangeReverseINS_9allocatorINS_12basic_stringIcNS_11char_traitsIcEENS1_IcEEEEEENS_16reverse_iteratorIPS6_EEEclB7v160006Ev, symObjAddr: 0x3340, symBinAddr: 0x100008580, symSize: 0xF0 }
  - { offsetInCU: 0x1F4BE, offset: 0x308ED, size: 0x8, addend: 0x0, symName: __ZNSt3__116reverse_iteratorINS0_IPNS_12basic_stringIcNS_11char_traitsIcEENS_9allocatorIcEEEEEEEC1B7v160006ES8_, symObjAddr: 0x34A0, symBinAddr: 0x1000086E0, symSize: 0x30 }
  - { offsetInCU: 0x1F4F4, offset: 0x30923, size: 0x8, addend: 0x0, symName: __ZNSt3__116reverse_iteratorINS0_IPNS_12basic_stringIcNS_11char_traitsIcEENS_9allocatorIcEEEEEEEppB7v160006Ev, symObjAddr: 0x3540, symBinAddr: 0x100008780, symSize: 0x30 }
  - { offsetInCU: 0x1F518, offset: 0x30947, size: 0x8, addend: 0x0, symName: __ZNKSt3__116reverse_iteratorINS0_IPNS_12basic_stringIcNS_11char_traitsIcEENS_9allocatorIcEEEEEEE4baseB7v160006Ev, symObjAddr: 0x3570, symBinAddr: 0x1000087B0, symSize: 0x20 }
  - { offsetInCU: 0x1F541, offset: 0x30970, size: 0x8, addend: 0x0, symName: __ZNSt3__119__to_address_helperINS_16reverse_iteratorINS1_IPNS_12basic_stringIcNS_11char_traitsIcEENS_9allocatorIcEEEEEEEEvE6__callB7v160006ERKSA_, symObjAddr: 0x3590, symBinAddr: 0x1000087D0, symSize: 0x40 }
  - { offsetInCU: 0x1F563, offset: 0x30992, size: 0x8, addend: 0x0, symName: __ZNKSt3__116reverse_iteratorINS0_IPNS_12basic_stringIcNS_11char_traitsIcEENS_9allocatorIcEEEEEEEptB7v160006Ev, symObjAddr: 0x35D0, symBinAddr: 0x100008810, symSize: 0x50 }
  - { offsetInCU: 0x1F587, offset: 0x309B6, size: 0x8, addend: 0x0, symName: __ZNSt3__116reverse_iteratorIPNS_12basic_stringIcNS_11char_traitsIcEENS_9allocatorIcEEEEEpLB7v160006El, symObjAddr: 0x3700, symBinAddr: 0x100008940, symSize: 0x30 }
  - { offsetInCU: 0x1F5B9, offset: 0x309E8, size: 0x8, addend: 0x0, symName: __ZNSt3__116reverse_iteratorIPNS_12basic_stringIcNS_11char_traitsIcEENS_9allocatorIcEEEEEmmB7v160006Ev, symObjAddr: 0x3730, symBinAddr: 0x100008970, symSize: 0x20 }
  - { offsetInCU: 0x1F5DD, offset: 0x30A0C, size: 0x8, addend: 0x0, symName: __ZNSt3__116reverse_iteratorINS0_IPNS_12basic_stringIcNS_11char_traitsIcEENS_9allocatorIcEEEEEEEC2B7v160006ES8_, symObjAddr: 0x3750, symBinAddr: 0x100008990, symSize: 0x40 }
  - { offsetInCU: 0x1F613, offset: 0x30A42, size: 0x8, addend: 0x0, symName: __ZNSt3__116reverse_iteratorIPNS_12basic_stringIcNS_11char_traitsIcEENS_9allocatorIcEEEEEC2B7v160006ES7_, symObjAddr: 0x3790, symBinAddr: 0x1000089D0, symSize: 0x30 }
  - { offsetInCU: 0x1F649, offset: 0x30A78, size: 0x8, addend: 0x0, symName: __ZNSt3__114__split_bufferINS_12basic_stringIcNS_11char_traitsIcEENS_9allocatorIcEEEERNS4_IS6_EEED2Ev, symObjAddr: 0x37C0, symBinAddr: 0x100008A00, symSize: 0x70 }
  - { offsetInCU: 0x1F673, offset: 0x30AA2, size: 0x8, addend: 0x0, symName: __ZNSt3__114__split_bufferINS_12basic_stringIcNS_11char_traitsIcEENS_9allocatorIcEEEERNS4_IS6_EEE5clearB7v160006Ev, symObjAddr: 0x3830, symBinAddr: 0x100008A70, symSize: 0x20 }
  - { offsetInCU: 0x1F697, offset: 0x30AC6, size: 0x8, addend: 0x0, symName: __ZNKSt3__114__split_bufferINS_12basic_stringIcNS_11char_traitsIcEENS_9allocatorIcEEEERNS4_IS6_EEE8capacityB7v160006Ev, symObjAddr: 0x3880, symBinAddr: 0x100008A90, symSize: 0x40 }
  - { offsetInCU: 0x1F6BB, offset: 0x30AEA, size: 0x8, addend: 0x0, symName: __ZNSt3__114__split_bufferINS_12basic_stringIcNS_11char_traitsIcEENS_9allocatorIcEEEERNS4_IS6_EEE17__destruct_at_endB7v160006EPS6_, symObjAddr: 0x38C0, symBinAddr: 0x100008AD0, symSize: 0x30 }
  - { offsetInCU: 0x1F6ED, offset: 0x30B1C, size: 0x8, addend: 0x0, symName: __ZNSt3__114__split_bufferINS_12basic_stringIcNS_11char_traitsIcEENS_9allocatorIcEEEERNS4_IS6_EEE17__destruct_at_endB7v160006EPS6_NS_17integral_constantIbLb0EEE, symObjAddr: 0x38F0, symBinAddr: 0x100008B00, symSize: 0x80 }
  - { offsetInCU: 0x1F72C, offset: 0x30B5B, size: 0x8, addend: 0x0, symName: __ZNKSt3__114__split_bufferINS_12basic_stringIcNS_11char_traitsIcEENS_9allocatorIcEEEERNS4_IS6_EEE9__end_capB7v160006Ev, symObjAddr: 0x3AC0, symBinAddr: 0x100008B80, symSize: 0x20 }
  - { offsetInCU: 0x1F750, offset: 0x30B7F, size: 0x8, addend: 0x0, symName: __ZNKSt3__117__compressed_pairIPNS_12basic_stringIcNS_11char_traitsIcEENS_9allocatorIcEEEERNS4_IS6_EEE5firstB7v160006Ev, symObjAddr: 0x3AE0, symBinAddr: 0x100008BA0, symSize: 0x20 }
  - { offsetInCU: 0x1F774, offset: 0x30BA3, size: 0x8, addend: 0x0, symName: __ZNSt3__16vectorINS0_INS_12basic_stringIcNS_11char_traitsIcEENS_9allocatorIcEEEENS4_IS6_EEEENS4_IS8_EEE9__end_capB7v160006Ev, symObjAddr: 0x3B00, symBinAddr: 0x100008BC0, symSize: 0x20 }
  - { offsetInCU: 0x1F798, offset: 0x30BC7, size: 0x8, addend: 0x0, symName: __ZNSt3__16vectorINS0_INS_12basic_stringIcNS_11char_traitsIcEENS_9allocatorIcEEEENS4_IS6_EEEENS4_IS8_EEE22__construct_one_at_endB7v160006IJRKS8_EEEvDpOT_, symObjAddr: 0x3B20, symBinAddr: 0x100008BE0, symSize: 0x90 }
  - { offsetInCU: 0x1F7E5, offset: 0x30C14, size: 0x8, addend: 0x0, symName: __ZNSt3__16vectorINS0_INS_12basic_stringIcNS_11char_traitsIcEENS_9allocatorIcEEEENS4_IS6_EEEENS4_IS8_EEE21__push_back_slow_pathIRKS8_EEvOT_, symObjAddr: 0x3BB0, symBinAddr: 0x100008C70, symSize: 0xD0 }
  - { offsetInCU: 0x1F842, offset: 0x30C71, size: 0x8, addend: 0x0, symName: __ZNSt3__117__compressed_pairIPNS_6vectorINS_12basic_stringIcNS_11char_traitsIcEENS_9allocatorIcEEEENS5_IS7_EEEENS5_IS9_EEE5firstB7v160006Ev, symObjAddr: 0x3C80, symBinAddr: 0x100008D40, symSize: 0x20 }
  - { offsetInCU: 0x1F866, offset: 0x30C95, size: 0x8, addend: 0x0, symName: __ZNSt3__122__compressed_pair_elemIPNS_6vectorINS_12basic_stringIcNS_11char_traitsIcEENS_9allocatorIcEEEENS5_IS7_EEEELi0ELb0EE5__getB7v160006Ev, symObjAddr: 0x3CA0, symBinAddr: 0x100008D60, symSize: 0x10 }
  - { offsetInCU: 0x1F8A3, offset: 0x30CD2, size: 0x8, addend: 0x0, symName: __ZNSt3__16vectorINS0_INS_12basic_stringIcNS_11char_traitsIcEENS_9allocatorIcEEEENS4_IS6_EEEENS4_IS8_EEE21_ConstructTransactionC1B7v160006ERSA_m, symObjAddr: 0x3CB0, symBinAddr: 0x100008D70, symSize: 0x30 }
  - { offsetInCU: 0x1F8E9, offset: 0x30D18, size: 0x8, addend: 0x0, symName: __ZNSt3__116allocator_traitsINS_9allocatorINS_6vectorINS_12basic_stringIcNS_11char_traitsIcEENS1_IcEEEENS1_IS7_EEEEEEE9constructB7v160006IS9_JRKS9_EvvEEvRSA_PT_DpOT0_, symObjAddr: 0x3CE0, symBinAddr: 0x100008DA0, symSize: 0x30 }
  - { offsetInCU: 0x1F93D, offset: 0x30D6C, size: 0x8, addend: 0x0, symName: __ZNSt3__16vectorINS0_INS_12basic_stringIcNS_11char_traitsIcEENS_9allocatorIcEEEENS4_IS6_EEEENS4_IS8_EEE21_ConstructTransactionD1B7v160006Ev, symObjAddr: 0x3D40, symBinAddr: 0x100008DD0, symSize: 0x20 }
  - { offsetInCU: 0x1F965, offset: 0x30D94, size: 0x8, addend: 0x0, symName: __ZNSt3__16vectorINS0_INS_12basic_stringIcNS_11char_traitsIcEENS_9allocatorIcEEEENS4_IS6_EEEENS4_IS8_EEE21_ConstructTransactionC2B7v160006ERSA_m, symObjAddr: 0x3D60, symBinAddr: 0x100008DF0, symSize: 0x40 }
  - { offsetInCU: 0x1F9AB, offset: 0x30DDA, size: 0x8, addend: 0x0, symName: __ZNSt3__16vectorINS_12basic_stringIcNS_11char_traitsIcEENS_9allocatorIcEEEENS4_IS6_EEEC1ERKS8_, symObjAddr: 0x3DE0, symBinAddr: 0x100008E70, symSize: 0x30 }
  - { offsetInCU: 0x1F9E4, offset: 0x30E13, size: 0x8, addend: 0x0, symName: __ZNSt3__16vectorINS_12basic_stringIcNS_11char_traitsIcEENS_9allocatorIcEEEENS4_IS6_EEEC2ERKS8_, symObjAddr: 0x3E10, symBinAddr: 0x100008EA0, symSize: 0x110 }
  - { offsetInCU: 0x1FA43, offset: 0x30E72, size: 0x8, addend: 0x0, symName: __ZNSt3__116allocator_traitsINS_9allocatorINS_12basic_stringIcNS_11char_traitsIcEENS1_IcEEEEEEE37select_on_container_copy_constructionB7v160006IS7_vvEES7_RKS7_, symObjAddr: 0x3F20, symBinAddr: 0x100008FB0, symSize: 0x10 }
  - { offsetInCU: 0x1FA76, offset: 0x30EA5, size: 0x8, addend: 0x0, symName: __ZNSt3__117__compressed_pairIPNS_12basic_stringIcNS_11char_traitsIcEENS_9allocatorIcEEEENS4_IS6_EEEC1B7v160006IDnS8_EEOT_OT0_, symObjAddr: 0x3F30, symBinAddr: 0x100008FC0, symSize: 0x30 }
  - { offsetInCU: 0x1FACC, offset: 0x30EFB, size: 0x8, addend: 0x0, symName: __ZNSt3__16vectorINS_12basic_stringIcNS_11char_traitsIcEENS_9allocatorIcEEEENS4_IS6_EEE11__vallocateB7v160006Em, symObjAddr: 0x3FD0, symBinAddr: 0x100009030, symSize: 0xA0 }
  - { offsetInCU: 0x1FB0E, offset: 0x30F3D, size: 0x8, addend: 0x0, symName: __ZNSt3__16vectorINS_12basic_stringIcNS_11char_traitsIcEENS_9allocatorIcEEEENS4_IS6_EEE18__construct_at_endIPS6_Li0EEEvT_SB_m, symObjAddr: 0x4070, symBinAddr: 0x1000090D0, symSize: 0x90 }
  - { offsetInCU: 0x1FB80, offset: 0x30FAF, size: 0x8, addend: 0x0, symName: __ZNSt3__128__exception_guard_exceptionsINS_6vectorINS_12basic_stringIcNS_11char_traitsIcEENS_9allocatorIcEEEENS5_IS7_EEE16__destroy_vectorEE10__completeB7v160006Ev, symObjAddr: 0x4100, symBinAddr: 0x100009160, symSize: 0x20 }
  - { offsetInCU: 0x1FBA4, offset: 0x30FD3, size: 0x8, addend: 0x0, symName: __ZNSt3__128__exception_guard_exceptionsINS_6vectorINS_12basic_stringIcNS_11char_traitsIcEENS_9allocatorIcEEEENS5_IS7_EEE16__destroy_vectorEED1B7v160006Ev, symObjAddr: 0x4120, symBinAddr: 0x100009180, symSize: 0x20 }
  - { offsetInCU: 0x1FBCC, offset: 0x30FFB, size: 0x8, addend: 0x0, symName: __ZNSt3__117__compressed_pairIPNS_12basic_stringIcNS_11char_traitsIcEENS_9allocatorIcEEEENS4_IS6_EEEC2B7v160006IDnS8_EEOT_OT0_, symObjAddr: 0x4140, symBinAddr: 0x1000091A0, symSize: 0x40 }
  - { offsetInCU: 0x1FC22, offset: 0x31051, size: 0x8, addend: 0x0, symName: __ZNSt3__122__compressed_pair_elemINS_9allocatorINS_12basic_stringIcNS_11char_traitsIcEENS1_IcEEEEEELi1ELb1EEC2B7v160006IS7_vEEOT_, symObjAddr: 0x4180, symBinAddr: 0x1000091E0, symSize: 0x10 }
  - { offsetInCU: 0x1FC62, offset: 0x31091, size: 0x8, addend: 0x0, symName: __ZNSt3__128__exception_guard_exceptionsINS_6vectorINS_12basic_stringIcNS_11char_traitsIcEENS_9allocatorIcEEEENS5_IS7_EEE16__destroy_vectorEEC1B7v160006ESA_, symObjAddr: 0x4190, symBinAddr: 0x1000091F0, symSize: 0x30 }
  - { offsetInCU: 0x1FC98, offset: 0x310C7, size: 0x8, addend: 0x0, symName: __ZNSt3__128__exception_guard_exceptionsINS_6vectorINS_12basic_stringIcNS_11char_traitsIcEENS_9allocatorIcEEEENS5_IS7_EEE16__destroy_vectorEEC2B7v160006ESA_, symObjAddr: 0x41C0, symBinAddr: 0x100009220, symSize: 0x20 }
  - { offsetInCU: 0x1FCCE, offset: 0x310FD, size: 0x8, addend: 0x0, symName: __ZNSt3__129_AllocatorDestroyRangeReverseINS_9allocatorINS_12basic_stringIcNS_11char_traitsIcEENS1_IcEEEEEEPS6_EC1B7v160006ERS7_RS8_SB_, symObjAddr: 0x4360, symBinAddr: 0x1000093A0, symSize: 0x40 }
  - { offsetInCU: 0x1FD23, offset: 0x31152, size: 0x8, addend: 0x0, symName: __ZNSt3__116allocator_traitsINS_9allocatorINS_12basic_stringIcNS_11char_traitsIcEENS1_IcEEEEEEE9constructB7v160006IS6_JRS6_EvvEEvRS7_PT_DpOT0_, symObjAddr: 0x43A0, symBinAddr: 0x1000093E0, symSize: 0x30 }
  - { offsetInCU: 0x1FD77, offset: 0x311A6, size: 0x8, addend: 0x0, symName: __ZNSt3__128__exception_guard_exceptionsINS_29_AllocatorDestroyRangeReverseINS_9allocatorINS_12basic_stringIcNS_11char_traitsIcEENS2_IcEEEEEEPS7_EEE10__completeB7v160006Ev, symObjAddr: 0x43D0, symBinAddr: 0x100009410, symSize: 0x20 }
  - { offsetInCU: 0x1FD9B, offset: 0x311CA, size: 0x8, addend: 0x0, symName: __ZNSt3__128__exception_guard_exceptionsINS_29_AllocatorDestroyRangeReverseINS_9allocatorINS_12basic_stringIcNS_11char_traitsIcEENS2_IcEEEEEEPS7_EEED1B7v160006Ev, symObjAddr: 0x43F0, symBinAddr: 0x100009430, symSize: 0x20 }
  - { offsetInCU: 0x1FDC3, offset: 0x311F2, size: 0x8, addend: 0x0, symName: __ZNSt3__128__exception_guard_exceptionsINS_29_AllocatorDestroyRangeReverseINS_9allocatorINS_12basic_stringIcNS_11char_traitsIcEENS2_IcEEEEEEPS7_EEEC1B7v160006ESA_, symObjAddr: 0x4410, symBinAddr: 0x100009450, symSize: 0x40 }
  - { offsetInCU: 0x1FDF9, offset: 0x31228, size: 0x8, addend: 0x0, symName: __ZNSt3__128__exception_guard_exceptionsINS_29_AllocatorDestroyRangeReverseINS_9allocatorINS_12basic_stringIcNS_11char_traitsIcEENS2_IcEEEEEEPS7_EEEC2B7v160006ESA_, symObjAddr: 0x4450, symBinAddr: 0x100009490, symSize: 0x30 }
  - { offsetInCU: 0x1FE2F, offset: 0x3125E, size: 0x8, addend: 0x0, symName: __ZNSt3__129_AllocatorDestroyRangeReverseINS_9allocatorINS_12basic_stringIcNS_11char_traitsIcEENS1_IcEEEEEEPS6_EC2B7v160006ERS7_RS8_SB_, symObjAddr: 0x4480, symBinAddr: 0x1000094C0, symSize: 0x40 }
  - { offsetInCU: 0x1FE84, offset: 0x312B3, size: 0x8, addend: 0x0, symName: __ZNSt3__128__exception_guard_exceptionsINS_29_AllocatorDestroyRangeReverseINS_9allocatorINS_12basic_stringIcNS_11char_traitsIcEENS2_IcEEEEEEPS7_EEED2B7v160006Ev, symObjAddr: 0x4500, symBinAddr: 0x100009540, symSize: 0x40 }
  - { offsetInCU: 0x1FEAC, offset: 0x312DB, size: 0x8, addend: 0x0, symName: __ZNKSt3__129_AllocatorDestroyRangeReverseINS_9allocatorINS_12basic_stringIcNS_11char_traitsIcEENS1_IcEEEEEEPS6_EclB7v160006Ev, symObjAddr: 0x4540, symBinAddr: 0x100009580, symSize: 0x60 }
  - { offsetInCU: 0x1FED0, offset: 0x312FF, size: 0x8, addend: 0x0, symName: __ZNSt3__128__exception_guard_exceptionsINS_6vectorINS_12basic_stringIcNS_11char_traitsIcEENS_9allocatorIcEEEENS5_IS7_EEE16__destroy_vectorEED2B7v160006Ev, symObjAddr: 0x4610, symBinAddr: 0x100009650, symSize: 0x40 }
  - { offsetInCU: 0x1FEF8, offset: 0x31327, size: 0x8, addend: 0x0, symName: __ZNSt3__16vectorINS0_INS_12basic_stringIcNS_11char_traitsIcEENS_9allocatorIcEEEENS4_IS6_EEEENS4_IS8_EEE21_ConstructTransactionD2B7v160006Ev, symObjAddr: 0x4720, symBinAddr: 0x100009690, symSize: 0x20 }
  - { offsetInCU: 0x1FF20, offset: 0x3134F, size: 0x8, addend: 0x0, symName: __ZNKSt3__16vectorINS0_INS_12basic_stringIcNS_11char_traitsIcEENS_9allocatorIcEEEENS4_IS6_EEEENS4_IS8_EEE11__recommendB7v160006Em, symObjAddr: 0x4740, symBinAddr: 0x1000096B0, symSize: 0xA0 }
  - { offsetInCU: 0x1FF74, offset: 0x313A3, size: 0x8, addend: 0x0, symName: __ZNSt3__114__split_bufferINS_6vectorINS_12basic_stringIcNS_11char_traitsIcEENS_9allocatorIcEEEENS5_IS7_EEEERNS5_IS9_EEEC1EmmSB_, symObjAddr: 0x47E0, symBinAddr: 0x100009750, symSize: 0x40 }
  - { offsetInCU: 0x1FFC8, offset: 0x313F7, size: 0x8, addend: 0x0, symName: __ZNSt3__114__split_bufferINS_6vectorINS_12basic_stringIcNS_11char_traitsIcEENS_9allocatorIcEEEENS5_IS7_EEEERNS5_IS9_EEED1Ev, symObjAddr: 0x4950, symBinAddr: 0x1000098C0, symSize: 0x20 }
  - { offsetInCU: 0x1FFF2, offset: 0x31421, size: 0x8, addend: 0x0, symName: __ZNKSt3__16vectorINS0_INS_12basic_stringIcNS_11char_traitsIcEENS_9allocatorIcEEEENS4_IS6_EEEENS4_IS8_EEE8max_sizeEv, symObjAddr: 0x4970, symBinAddr: 0x1000098E0, symSize: 0x60 }
  - { offsetInCU: 0x20019, offset: 0x31448, size: 0x8, addend: 0x0, symName: __ZNKSt3__16vectorINS0_INS_12basic_stringIcNS_11char_traitsIcEENS_9allocatorIcEEEENS4_IS6_EEEENS4_IS8_EEE20__throw_length_errorB7v160006Ev, symObjAddr: 0x49D0, symBinAddr: 0x100009940, symSize: 0x20 }
  - { offsetInCU: 0x20047, offset: 0x31476, size: 0x8, addend: 0x0, symName: __ZNSt3__116allocator_traitsINS_9allocatorINS_6vectorINS_12basic_stringIcNS_11char_traitsIcEENS1_IcEEEENS1_IS7_EEEEEEE8max_sizeB7v160006ISA_vvEEmRKSA_, symObjAddr: 0x4A30, symBinAddr: 0x100009960, symSize: 0x30 }
  - { offsetInCU: 0x20072, offset: 0x314A1, size: 0x8, addend: 0x0, symName: __ZNKSt3__16vectorINS0_INS_12basic_stringIcNS_11char_traitsIcEENS_9allocatorIcEEEENS4_IS6_EEEENS4_IS8_EEE7__allocB7v160006Ev, symObjAddr: 0x4A60, symBinAddr: 0x100009990, symSize: 0x20 }
  - { offsetInCU: 0x20096, offset: 0x314C5, size: 0x8, addend: 0x0, symName: __ZNKSt3__117__compressed_pairIPNS_6vectorINS_12basic_stringIcNS_11char_traitsIcEENS_9allocatorIcEEEENS5_IS7_EEEENS5_IS9_EEE6secondB7v160006Ev, symObjAddr: 0x4A80, symBinAddr: 0x1000099B0, symSize: 0x20 }
  - { offsetInCU: 0x200BA, offset: 0x314E9, size: 0x8, addend: 0x0, symName: __ZNKSt3__122__compressed_pair_elemINS_9allocatorINS_6vectorINS_12basic_stringIcNS_11char_traitsIcEENS1_IcEEEENS1_IS7_EEEEEELi1ELb1EE5__getB7v160006Ev, symObjAddr: 0x4AA0, symBinAddr: 0x1000099D0, symSize: 0x10 }
  - { offsetInCU: 0x200DE, offset: 0x3150D, size: 0x8, addend: 0x0, symName: __ZNSt3__114__split_bufferINS_6vectorINS_12basic_stringIcNS_11char_traitsIcEENS_9allocatorIcEEEENS5_IS7_EEEERNS5_IS9_EEEC2EmmSB_, symObjAddr: 0x4B00, symBinAddr: 0x1000099E0, symSize: 0xC0 }
  - { offsetInCU: 0x2014F, offset: 0x3157E, size: 0x8, addend: 0x0, symName: __ZNSt3__117__compressed_pairIPNS_6vectorINS_12basic_stringIcNS_11char_traitsIcEENS_9allocatorIcEEEENS5_IS7_EEEERNS5_IS9_EEEC1B7v160006IDnSC_EEOT_OT0_, symObjAddr: 0x4BC0, symBinAddr: 0x100009AA0, symSize: 0x30 }
  - { offsetInCU: 0x201A5, offset: 0x315D4, size: 0x8, addend: 0x0, symName: __ZNSt3__114__split_bufferINS_6vectorINS_12basic_stringIcNS_11char_traitsIcEENS_9allocatorIcEEEENS5_IS7_EEEERNS5_IS9_EEE7__allocB7v160006Ev, symObjAddr: 0x4C30, symBinAddr: 0x100009B10, symSize: 0x20 }
  - { offsetInCU: 0x201C9, offset: 0x315F8, size: 0x8, addend: 0x0, symName: __ZNSt3__114__split_bufferINS_6vectorINS_12basic_stringIcNS_11char_traitsIcEENS_9allocatorIcEEEENS5_IS7_EEEERNS5_IS9_EEE9__end_capB7v160006Ev, symObjAddr: 0x4C50, symBinAddr: 0x100009B30, symSize: 0x20 }
  - { offsetInCU: 0x201ED, offset: 0x3161C, size: 0x8, addend: 0x0, symName: __ZNSt3__117__compressed_pairIPNS_6vectorINS_12basic_stringIcNS_11char_traitsIcEENS_9allocatorIcEEEENS5_IS7_EEEERNS5_IS9_EEEC2B7v160006IDnSC_EEOT_OT0_, symObjAddr: 0x4C70, symBinAddr: 0x100009B50, symSize: 0x40 }
  - { offsetInCU: 0x20243, offset: 0x31672, size: 0x8, addend: 0x0, symName: __ZNSt3__122__compressed_pair_elemIRNS_9allocatorINS_6vectorINS_12basic_stringIcNS_11char_traitsIcEENS1_IcEEEENS1_IS7_EEEEEELi1ELb0EEC2B7v160006ISB_vEEOT_, symObjAddr: 0x4CD0, symBinAddr: 0x100009B90, symSize: 0x20 }
  - { offsetInCU: 0x20283, offset: 0x316B2, size: 0x8, addend: 0x0, symName: __ZNSt3__19allocatorINS_6vectorINS_12basic_stringIcNS_11char_traitsIcEENS0_IcEEEENS0_IS6_EEEEE8allocateB7v160006Em, symObjAddr: 0x4CF0, symBinAddr: 0x100009BB0, symSize: 0x50 }
  - { offsetInCU: 0x202B5, offset: 0x316E4, size: 0x8, addend: 0x0, symName: __ZNSt3__117__compressed_pairIPNS_6vectorINS_12basic_stringIcNS_11char_traitsIcEENS_9allocatorIcEEEENS5_IS7_EEEERNS5_IS9_EEE6secondB7v160006Ev, symObjAddr: 0x4D40, symBinAddr: 0x100009C00, symSize: 0x20 }
  - { offsetInCU: 0x202D9, offset: 0x31708, size: 0x8, addend: 0x0, symName: __ZNSt3__122__compressed_pair_elemIRNS_9allocatorINS_6vectorINS_12basic_stringIcNS_11char_traitsIcEENS1_IcEEEENS1_IS7_EEEEEELi1ELb0EE5__getB7v160006Ev, symObjAddr: 0x4D60, symBinAddr: 0x100009C20, symSize: 0x20 }
  - { offsetInCU: 0x202FD, offset: 0x3172C, size: 0x8, addend: 0x0, symName: __ZNSt3__117__compressed_pairIPNS_6vectorINS_12basic_stringIcNS_11char_traitsIcEENS_9allocatorIcEEEENS5_IS7_EEEERNS5_IS9_EEE5firstB7v160006Ev, symObjAddr: 0x4D80, symBinAddr: 0x100009C40, symSize: 0x20 }
  - { offsetInCU: 0x20321, offset: 0x31750, size: 0x8, addend: 0x0, symName: __ZNSt3__116reverse_iteratorIPNS_6vectorINS_12basic_stringIcNS_11char_traitsIcEENS_9allocatorIcEEEENS5_IS7_EEEEEC1B7v160006ESA_, symObjAddr: 0x4FD0, symBinAddr: 0x100009DE0, symSize: 0x30 }
  - { offsetInCU: 0x20357, offset: 0x31786, size: 0x8, addend: 0x0, symName: __ZNKSt3__116reverse_iteratorIPNS_6vectorINS_12basic_stringIcNS_11char_traitsIcEENS_9allocatorIcEEEENS5_IS7_EEEEE4baseB7v160006Ev, symObjAddr: 0x5000, symBinAddr: 0x100009E10, symSize: 0x20 }
  - { offsetInCU: 0x2037B, offset: 0x317AA, size: 0x8, addend: 0x0, symName: __ZNKSt3__16vectorINS0_INS_12basic_stringIcNS_11char_traitsIcEENS_9allocatorIcEEEENS4_IS6_EEEENS4_IS8_EEE14__annotate_newB7v160006Em, symObjAddr: 0x5060, symBinAddr: 0x100009E70, symSize: 0xA0 }
  - { offsetInCU: 0x203AE, offset: 0x317DD, size: 0x8, addend: 0x0, symName: __ZNSt3__129_AllocatorDestroyRangeReverseINS_9allocatorINS_6vectorINS_12basic_stringIcNS_11char_traitsIcEENS1_IcEEEENS1_IS7_EEEEEENS_16reverse_iteratorIPS9_EEEC1B7v160006ERSA_RSD_SG_, symObjAddr: 0x51B0, symBinAddr: 0x100009F80, symSize: 0x40 }
  - { offsetInCU: 0x20403, offset: 0x31832, size: 0x8, addend: 0x0, symName: __ZNSt3__116allocator_traitsINS_9allocatorINS_6vectorINS_12basic_stringIcNS_11char_traitsIcEENS1_IcEEEENS1_IS7_EEEEEEE9constructB7v160006IS9_JS9_EvvEEvRSA_PT_DpOT0_, symObjAddr: 0x5230, symBinAddr: 0x10000A000, symSize: 0x30 }
  - { offsetInCU: 0x20457, offset: 0x31886, size: 0x8, addend: 0x0, symName: __ZNKSt3__116reverse_iteratorIPNS_6vectorINS_12basic_stringIcNS_11char_traitsIcEENS_9allocatorIcEEEENS5_IS7_EEEEEdeB7v160006Ev, symObjAddr: 0x5280, symBinAddr: 0x10000A050, symSize: 0x30 }
  - { offsetInCU: 0x20489, offset: 0x318B8, size: 0x8, addend: 0x0, symName: __ZNSt3__116reverse_iteratorIPNS_6vectorINS_12basic_stringIcNS_11char_traitsIcEENS_9allocatorIcEEEENS5_IS7_EEEEEppB7v160006Ev, symObjAddr: 0x52B0, symBinAddr: 0x10000A080, symSize: 0x20 }
  - { offsetInCU: 0x204AD, offset: 0x318DC, size: 0x8, addend: 0x0, symName: __ZNSt3__128__exception_guard_exceptionsINS_29_AllocatorDestroyRangeReverseINS_9allocatorINS_6vectorINS_12basic_stringIcNS_11char_traitsIcEENS2_IcEEEENS2_IS8_EEEEEENS_16reverse_iteratorIPSA_EEEEE10__completeB7v160006Ev, symObjAddr: 0x52D0, symBinAddr: 0x10000A0A0, symSize: 0x20 }
  - { offsetInCU: 0x204D1, offset: 0x31900, size: 0x8, addend: 0x0, symName: __ZNSt3__128__exception_guard_exceptionsINS_29_AllocatorDestroyRangeReverseINS_9allocatorINS_6vectorINS_12basic_stringIcNS_11char_traitsIcEENS2_IcEEEENS2_IS8_EEEEEENS_16reverse_iteratorIPSA_EEEEED1B7v160006Ev, symObjAddr: 0x52F0, symBinAddr: 0x10000A0C0, symSize: 0x20 }
  - { offsetInCU: 0x204F9, offset: 0x31928, size: 0x8, addend: 0x0, symName: __ZNSt3__128__exception_guard_exceptionsINS_29_AllocatorDestroyRangeReverseINS_9allocatorINS_6vectorINS_12basic_stringIcNS_11char_traitsIcEENS2_IcEEEENS2_IS8_EEEEEENS_16reverse_iteratorIPSA_EEEEEC1B7v160006ESF_, symObjAddr: 0x5310, symBinAddr: 0x10000A0E0, symSize: 0x40 }
  - { offsetInCU: 0x2052F, offset: 0x3195E, size: 0x8, addend: 0x0, symName: __ZNSt3__128__exception_guard_exceptionsINS_29_AllocatorDestroyRangeReverseINS_9allocatorINS_6vectorINS_12basic_stringIcNS_11char_traitsIcEENS2_IcEEEENS2_IS8_EEEEEENS_16reverse_iteratorIPSA_EEEEEC2B7v160006ESF_, symObjAddr: 0x5350, symBinAddr: 0x10000A120, symSize: 0x30 }
  - { offsetInCU: 0x20565, offset: 0x31994, size: 0x8, addend: 0x0, symName: __ZNSt3__129_AllocatorDestroyRangeReverseINS_9allocatorINS_6vectorINS_12basic_stringIcNS_11char_traitsIcEENS1_IcEEEENS1_IS7_EEEEEENS_16reverse_iteratorIPS9_EEEC2B7v160006ERSA_RSD_SG_, symObjAddr: 0x5380, symBinAddr: 0x10000A150, symSize: 0x40 }
  - { offsetInCU: 0x205BA, offset: 0x319E9, size: 0x8, addend: 0x0, symName: __ZNSt3__16vectorINS_12basic_stringIcNS_11char_traitsIcEENS_9allocatorIcEEEENS4_IS6_EEEC1B7v160006EOS8_, symObjAddr: 0x5400, symBinAddr: 0x10000A1D0, symSize: 0x30 }
  - { offsetInCU: 0x205F3, offset: 0x31A22, size: 0x8, addend: 0x0, symName: __ZNSt3__16vectorINS_12basic_stringIcNS_11char_traitsIcEENS_9allocatorIcEEEENS4_IS6_EEEC2B7v160006EOS8_, symObjAddr: 0x5430, symBinAddr: 0x10000A200, symSize: 0xE0 }
  - { offsetInCU: 0x20631, offset: 0x31A60, size: 0x8, addend: 0x0, symName: __ZNSt3__119__to_address_helperINS_16reverse_iteratorIPNS_6vectorINS_12basic_stringIcNS_11char_traitsIcEENS_9allocatorIcEEEENS6_IS8_EEEEEEvE6__callB7v160006ERKSC_, symObjAddr: 0x5520, symBinAddr: 0x10000A2F0, symSize: 0x40 }
  - { offsetInCU: 0x20653, offset: 0x31A82, size: 0x8, addend: 0x0, symName: __ZNKSt3__116reverse_iteratorIPNS_6vectorINS_12basic_stringIcNS_11char_traitsIcEENS_9allocatorIcEEEENS5_IS7_EEEEEptB7v160006Ev, symObjAddr: 0x5560, symBinAddr: 0x10000A330, symSize: 0x30 }
  - { offsetInCU: 0x20677, offset: 0x31AA6, size: 0x8, addend: 0x0, symName: __ZNSt3__128__exception_guard_exceptionsINS_29_AllocatorDestroyRangeReverseINS_9allocatorINS_6vectorINS_12basic_stringIcNS_11char_traitsIcEENS2_IcEEEENS2_IS8_EEEEEENS_16reverse_iteratorIPSA_EEEEED2B7v160006Ev, symObjAddr: 0x5650, symBinAddr: 0x10000A420, symSize: 0x40 }
  - { offsetInCU: 0x2069F, offset: 0x31ACE, size: 0x8, addend: 0x0, symName: __ZNKSt3__129_AllocatorDestroyRangeReverseINS_9allocatorINS_6vectorINS_12basic_stringIcNS_11char_traitsIcEENS1_IcEEEENS1_IS7_EEEEEENS_16reverse_iteratorIPS9_EEEclB7v160006Ev, symObjAddr: 0x5690, symBinAddr: 0x10000A460, symSize: 0xF0 }
  - { offsetInCU: 0x206C4, offset: 0x31AF3, size: 0x8, addend: 0x0, symName: __ZNSt3__116reverse_iteratorINS0_IPNS_6vectorINS_12basic_stringIcNS_11char_traitsIcEENS_9allocatorIcEEEENS5_IS7_EEEEEEEC1B7v160006ESB_, symObjAddr: 0x57F0, symBinAddr: 0x10000A5C0, symSize: 0x30 }
  - { offsetInCU: 0x206FA, offset: 0x31B29, size: 0x8, addend: 0x0, symName: __ZNSt3__116reverse_iteratorINS0_IPNS_6vectorINS_12basic_stringIcNS_11char_traitsIcEENS_9allocatorIcEEEENS5_IS7_EEEEEEEppB7v160006Ev, symObjAddr: 0x58B0, symBinAddr: 0x10000A660, symSize: 0x30 }
  - { offsetInCU: 0x2071E, offset: 0x31B4D, size: 0x8, addend: 0x0, symName: __ZNKSt3__116reverse_iteratorINS0_IPNS_6vectorINS_12basic_stringIcNS_11char_traitsIcEENS_9allocatorIcEEEENS5_IS7_EEEEEEE4baseB7v160006Ev, symObjAddr: 0x58E0, symBinAddr: 0x10000A690, symSize: 0x20 }
  - { offsetInCU: 0x20747, offset: 0x31B76, size: 0x8, addend: 0x0, symName: __ZNSt3__119__to_address_helperINS_16reverse_iteratorINS1_IPNS_6vectorINS_12basic_stringIcNS_11char_traitsIcEENS_9allocatorIcEEEENS6_IS8_EEEEEEEEvE6__callB7v160006ERKSD_, symObjAddr: 0x5940, symBinAddr: 0x10000A6B0, symSize: 0x40 }
  - { offsetInCU: 0x20769, offset: 0x31B98, size: 0x8, addend: 0x0, symName: __ZNKSt3__116reverse_iteratorINS0_IPNS_6vectorINS_12basic_stringIcNS_11char_traitsIcEENS_9allocatorIcEEEENS5_IS7_EEEEEEEptB7v160006Ev, symObjAddr: 0x5980, symBinAddr: 0x10000A6F0, symSize: 0x50 }
  - { offsetInCU: 0x2078D, offset: 0x31BBC, size: 0x8, addend: 0x0, symName: __ZNSt3__116reverse_iteratorIPNS_6vectorINS_12basic_stringIcNS_11char_traitsIcEENS_9allocatorIcEEEENS5_IS7_EEEEEpLB7v160006El, symObjAddr: 0x5AB0, symBinAddr: 0x10000A820, symSize: 0x30 }
  - { offsetInCU: 0x207BF, offset: 0x31BEE, size: 0x8, addend: 0x0, symName: __ZNSt3__116reverse_iteratorIPNS_6vectorINS_12basic_stringIcNS_11char_traitsIcEENS_9allocatorIcEEEENS5_IS7_EEEEEmmB7v160006Ev, symObjAddr: 0x5AE0, symBinAddr: 0x10000A850, symSize: 0x20 }
  - { offsetInCU: 0x207E3, offset: 0x31C12, size: 0x8, addend: 0x0, symName: __ZNSt3__116reverse_iteratorINS0_IPNS_6vectorINS_12basic_stringIcNS_11char_traitsIcEENS_9allocatorIcEEEENS5_IS7_EEEEEEEC2B7v160006ESB_, symObjAddr: 0x5B00, symBinAddr: 0x10000A870, symSize: 0x40 }
  - { offsetInCU: 0x20819, offset: 0x31C48, size: 0x8, addend: 0x0, symName: __ZNSt3__116reverse_iteratorIPNS_6vectorINS_12basic_stringIcNS_11char_traitsIcEENS_9allocatorIcEEEENS5_IS7_EEEEEC2B7v160006ESA_, symObjAddr: 0x5B40, symBinAddr: 0x10000A8B0, symSize: 0x30 }
  - { offsetInCU: 0x2084F, offset: 0x31C7E, size: 0x8, addend: 0x0, symName: __ZNSt3__114__split_bufferINS_6vectorINS_12basic_stringIcNS_11char_traitsIcEENS_9allocatorIcEEEENS5_IS7_EEEERNS5_IS9_EEED2Ev, symObjAddr: 0x5B70, symBinAddr: 0x10000A8E0, symSize: 0x70 }
  - { offsetInCU: 0x20879, offset: 0x31CA8, size: 0x8, addend: 0x0, symName: __ZNSt3__114__split_bufferINS_6vectorINS_12basic_stringIcNS_11char_traitsIcEENS_9allocatorIcEEEENS5_IS7_EEEERNS5_IS9_EEE5clearB7v160006Ev, symObjAddr: 0x5BE0, symBinAddr: 0x10000A950, symSize: 0x20 }
  - { offsetInCU: 0x2089D, offset: 0x31CCC, size: 0x8, addend: 0x0, symName: __ZNKSt3__114__split_bufferINS_6vectorINS_12basic_stringIcNS_11char_traitsIcEENS_9allocatorIcEEEENS5_IS7_EEEERNS5_IS9_EEE8capacityB7v160006Ev, symObjAddr: 0x5C30, symBinAddr: 0x10000A970, symSize: 0x40 }
  - { offsetInCU: 0x208C1, offset: 0x31CF0, size: 0x8, addend: 0x0, symName: __ZNSt3__114__split_bufferINS_6vectorINS_12basic_stringIcNS_11char_traitsIcEENS_9allocatorIcEEEENS5_IS7_EEEERNS5_IS9_EEE17__destruct_at_endB7v160006EPS9_, symObjAddr: 0x5C70, symBinAddr: 0x10000A9B0, symSize: 0x30 }
  - { offsetInCU: 0x208F3, offset: 0x31D22, size: 0x8, addend: 0x0, symName: __ZNSt3__114__split_bufferINS_6vectorINS_12basic_stringIcNS_11char_traitsIcEENS_9allocatorIcEEEENS5_IS7_EEEERNS5_IS9_EEE17__destruct_at_endB7v160006EPS9_NS_17integral_constantIbLb0EEE, symObjAddr: 0x5CA0, symBinAddr: 0x10000A9E0, symSize: 0x80 }
  - { offsetInCU: 0x20932, offset: 0x31D61, size: 0x8, addend: 0x0, symName: __ZNKSt3__114__split_bufferINS_6vectorINS_12basic_stringIcNS_11char_traitsIcEENS_9allocatorIcEEEENS5_IS7_EEEERNS5_IS9_EEE9__end_capB7v160006Ev, symObjAddr: 0x5D70, symBinAddr: 0x10000AA60, symSize: 0x20 }
  - { offsetInCU: 0x20956, offset: 0x31D85, size: 0x8, addend: 0x0, symName: __ZNKSt3__117__compressed_pairIPNS_6vectorINS_12basic_stringIcNS_11char_traitsIcEENS_9allocatorIcEEEENS5_IS7_EEEERNS5_IS9_EEE5firstB7v160006Ev, symObjAddr: 0x5D90, symBinAddr: 0x10000AA80, symSize: 0x20 }
  - { offsetInCU: 0x2097A, offset: 0x31DA9, size: 0x8, addend: 0x0, symName: __ZNSt3__118basic_stringstreamIcNS_11char_traitsIcEENS_9allocatorIcEEED2Ev, symObjAddr: 0x5DB0, symBinAddr: 0x10000AAA0, symSize: 0x60 }
  - { offsetInCU: 0x209B2, offset: 0x31DE1, size: 0x8, addend: 0x0, symName: __ZThn16_NSt3__118basic_stringstreamIcNS_11char_traitsIcEENS_9allocatorIcEEED1Ev, symObjAddr: 0x5E10, symBinAddr: 0x10000AB00, symSize: 0x20 }
  - { offsetInCU: 0x209C9, offset: 0x31DF8, size: 0x8, addend: 0x0, symName: __ZTv0_n24_NSt3__118basic_stringstreamIcNS_11char_traitsIcEENS_9allocatorIcEEED1Ev, symObjAddr: 0x5E30, symBinAddr: 0x10000AB20, symSize: 0x20 }
  - { offsetInCU: 0x209E5, offset: 0x31E14, size: 0x8, addend: 0x0, symName: __ZNSt3__115basic_stringbufIcNS_11char_traitsIcEENS_9allocatorIcEEED1Ev, symObjAddr: 0x5E50, symBinAddr: 0x10000AB40, symSize: 0x20 }
  - { offsetInCU: 0x20A11, offset: 0x31E40, size: 0x8, addend: 0x0, symName: __ZNSt3__115basic_stringbufIcNS_11char_traitsIcEENS_9allocatorIcEEED2Ev, symObjAddr: 0x5E70, symBinAddr: 0x10000AB60, symSize: 0x40 }
  - { offsetInCU: 0x20A3D, offset: 0x31E6C, size: 0x8, addend: 0x0, symName: __ZNSt3__114basic_ifstreamIcNS_11char_traitsIcEEED2Ev, symObjAddr: 0x5EF0, symBinAddr: 0x10000ABA0, symSize: 0x60 }
  - { offsetInCU: 0x20A75, offset: 0x31EA4, size: 0x8, addend: 0x0, symName: __ZTv0_n24_NSt3__114basic_ifstreamIcNS_11char_traitsIcEEED1Ev, symObjAddr: 0x5F50, symBinAddr: 0x10000AC00, symSize: 0x20 }
  - { offsetInCU: 0x20A8C, offset: 0x31EBB, size: 0x8, addend: 0x0, symName: __ZNKSt3__112basic_stringIcNS_11char_traitsIcEENS_9allocatorIcEEEcvNS_17basic_string_viewIcS2_EEB7v160006Ev, symObjAddr: 0x6000, symBinAddr: 0x10000ACB0, symSize: 0x50 }
  - { offsetInCU: 0x20AB0, offset: 0x31EDF, size: 0x8, addend: 0x0, symName: __ZNSt3__117basic_string_viewIcNS_11char_traitsIcEEEC1B7v160006EPKc, symObjAddr: 0x6050, symBinAddr: 0x10000AD00, symSize: 0x30 }
  - { offsetInCU: 0x20AE7, offset: 0x31F16, size: 0x8, addend: 0x0, symName: __ZNKSt3__117basic_string_viewIcNS_11char_traitsIcEEE4sizeB7v160006Ev, symObjAddr: 0x6080, symBinAddr: 0x10000AD30, symSize: 0x20 }
  - { offsetInCU: 0x20B0B, offset: 0x31F3A, size: 0x8, addend: 0x0, symName: __ZNKSt3__117basic_string_viewIcNS_11char_traitsIcEEE7compareES3_, symObjAddr: 0x60A0, symBinAddr: 0x10000AD50, symSize: 0x100 }
  - { offsetInCU: 0x20B5C, offset: 0x31F8B, size: 0x8, addend: 0x0, symName: __ZNSt3__111char_traitsIcE7compareEPKcS3_m, symObjAddr: 0x61A0, symBinAddr: 0x10000AE50, symSize: 0x60 }
  - { offsetInCU: 0x20B9A, offset: 0x31FC9, size: 0x8, addend: 0x0, symName: __ZNKSt3__117basic_string_viewIcNS_11char_traitsIcEEE4dataB7v160006Ev, symObjAddr: 0x6200, symBinAddr: 0x10000AEB0, symSize: 0x20 }
  - { offsetInCU: 0x20BBE, offset: 0x31FED, size: 0x8, addend: 0x0, symName: __ZNKSt3__112basic_stringIcNS_11char_traitsIcEENS_9allocatorIcEEE4dataB7v160006Ev, symObjAddr: 0x6250, symBinAddr: 0x10000AF00, symSize: 0x30 }
  - { offsetInCU: 0x20BE2, offset: 0x32011, size: 0x8, addend: 0x0, symName: __ZNKSt3__112basic_stringIcNS_11char_traitsIcEENS_9allocatorIcEEE4sizeB7v160006Ev, symObjAddr: 0x6280, symBinAddr: 0x10000AF30, symSize: 0x50 }
  - { offsetInCU: 0x20C06, offset: 0x32035, size: 0x8, addend: 0x0, symName: __ZNSt3__117basic_string_viewIcNS_11char_traitsIcEEEC1B7v160006EPKcm, symObjAddr: 0x62D0, symBinAddr: 0x10000AF80, symSize: 0x30 }
  - { offsetInCU: 0x20C4C, offset: 0x3207B, size: 0x8, addend: 0x0, symName: __ZNKSt3__112basic_stringIcNS_11char_traitsIcEENS_9allocatorIcEEE13__get_pointerB7v160006Ev, symObjAddr: 0x6310, symBinAddr: 0x10000AFC0, symSize: 0x50 }
  - { offsetInCU: 0x20C70, offset: 0x3209F, size: 0x8, addend: 0x0, symName: __ZNKSt3__112basic_stringIcNS_11char_traitsIcEENS_9allocatorIcEEE18__get_long_pointerB7v160006Ev, symObjAddr: 0x6360, symBinAddr: 0x10000B010, symSize: 0x20 }
  - { offsetInCU: 0x20C94, offset: 0x320C3, size: 0x8, addend: 0x0, symName: __ZNKSt3__112basic_stringIcNS_11char_traitsIcEENS_9allocatorIcEEE19__get_short_pointerB7v160006Ev, symObjAddr: 0x6380, symBinAddr: 0x10000B030, symSize: 0x30 }
  - { offsetInCU: 0x20CB8, offset: 0x320E7, size: 0x8, addend: 0x0, symName: __ZNSt3__114pointer_traitsIPKcE10pointer_toB7v160006ERS1_, symObjAddr: 0x63B0, symBinAddr: 0x10000B060, symSize: 0x10 }
  - { offsetInCU: 0x20CDA, offset: 0x32109, size: 0x8, addend: 0x0, symName: __ZNKSt3__112basic_stringIcNS_11char_traitsIcEENS_9allocatorIcEEE15__get_long_sizeB7v160006Ev, symObjAddr: 0x63C0, symBinAddr: 0x10000B070, symSize: 0x20 }
  - { offsetInCU: 0x20CFE, offset: 0x3212D, size: 0x8, addend: 0x0, symName: __ZNKSt3__112basic_stringIcNS_11char_traitsIcEENS_9allocatorIcEEE16__get_short_sizeB7v160006Ev, symObjAddr: 0x63E0, symBinAddr: 0x10000B090, symSize: 0x30 }
  - { offsetInCU: 0x20D22, offset: 0x32151, size: 0x8, addend: 0x0, symName: __ZNSt3__117basic_string_viewIcNS_11char_traitsIcEEEC2B7v160006EPKcm, symObjAddr: 0x6410, symBinAddr: 0x10000B0C0, symSize: 0x50 }
  - { offsetInCU: 0x20D68, offset: 0x32197, size: 0x8, addend: 0x0, symName: __ZNSt3__117basic_string_viewIcNS_11char_traitsIcEEEC2B7v160006EPKc, symObjAddr: 0x6460, symBinAddr: 0x10000B110, symSize: 0x40 }
  - { offsetInCU: 0x20D9F, offset: 0x321CE, size: 0x8, addend: 0x0, symName: __ZN11OperandNodeC2E11OperandTypeiR9Variables, symObjAddr: 0x6510, symBinAddr: 0x10000B170, symSize: 0x60 }
  - { offsetInCU: 0x20DF1, offset: 0x32220, size: 0x8, addend: 0x0, symName: __ZN14SyntaxTreeNodeC2E18SyntaxTreeNodeTypeR9Variables, symObjAddr: 0x6570, symBinAddr: 0x10000B1D0, symSize: 0x40 }
  - { offsetInCU: 0x20E35, offset: 0x32264, size: 0x8, addend: 0x0, symName: __ZN11OperandNodeC2E11OperandTypeNSt3__112basic_stringIcNS1_11char_traitsIcEENS1_9allocatorIcEEEER9Variables, symObjAddr: 0x65B0, symBinAddr: 0x10000B210, symSize: 0x60 }
  - { offsetInCU: 0x20E88, offset: 0x322B7, size: 0x8, addend: 0x0, symName: __ZN19BinaryOperationNodeC2E15BinaryOperationP14SyntaxTreeNodeS2_R9Variables, symObjAddr: 0x6610, symBinAddr: 0x10000B270, symSize: 0x60 }
  - { offsetInCU: 0x20EE8, offset: 0x32317, size: 0x8, addend: 0x0, symName: __ZN14AssignmentNodeC2ENSt3__112basic_stringIcNS0_11char_traitsIcEENS0_9allocatorIcEEEEP14SyntaxTreeNodeR9Variables, symObjAddr: 0x6670, symBinAddr: 0x10000B2D0, symSize: 0x70 }
  - { offsetInCU: 0x20F3B, offset: 0x3236A, size: 0x8, addend: 0x0, symName: __ZNSt3__16vectorIP14SyntaxTreeNodeNS_9allocatorIS2_EEEC2B7v160006Ev, symObjAddr: 0x66E0, symBinAddr: 0x10000B340, symSize: 0x60 }
  - { offsetInCU: 0x20F63, offset: 0x32392, size: 0x8, addend: 0x0, symName: __ZNSt3__117__compressed_pairIPP14SyntaxTreeNodeNS_9allocatorIS2_EEEC1B7v160006IDnNS_18__default_init_tagEEEOT_OT0_, symObjAddr: 0x6740, symBinAddr: 0x10000B3A0, symSize: 0x30 }
  - { offsetInCU: 0x20FB9, offset: 0x323E8, size: 0x8, addend: 0x0, symName: __ZNSt3__117__compressed_pairIPP14SyntaxTreeNodeNS_9allocatorIS2_EEEC2B7v160006IDnNS_18__default_init_tagEEEOT_OT0_, symObjAddr: 0x6780, symBinAddr: 0x10000B3E0, symSize: 0x40 }
  - { offsetInCU: 0x2100F, offset: 0x3243E, size: 0x8, addend: 0x0, symName: __ZNSt3__122__compressed_pair_elemIPP14SyntaxTreeNodeLi0ELb0EEC2B7v160006IDnvEEOT_, symObjAddr: 0x67C0, symBinAddr: 0x10000B420, symSize: 0x20 }
  - { offsetInCU: 0x2104F, offset: 0x3247E, size: 0x8, addend: 0x0, symName: __ZNSt3__122__compressed_pair_elemINS_9allocatorIP14SyntaxTreeNodeEELi1ELb1EEC2B7v160006ENS_18__default_init_tagE, symObjAddr: 0x67E0, symBinAddr: 0x10000B440, symSize: 0x20 }
  - { offsetInCU: 0x21081, offset: 0x324B0, size: 0x8, addend: 0x0, symName: __ZNSt3__19allocatorIP14SyntaxTreeNodeEC2B7v160006Ev, symObjAddr: 0x6800, symBinAddr: 0x10000B460, symSize: 0x20 }
  - { offsetInCU: 0x210A9, offset: 0x324D8, size: 0x8, addend: 0x0, symName: __ZNSt3__116__non_trivial_ifILb1ENS_9allocatorIP14SyntaxTreeNodeEEEC2B7v160006Ev, symObjAddr: 0x6820, symBinAddr: 0x10000B480, symSize: 0x10 }
  - { offsetInCU: 0x210D1, offset: 0x32500, size: 0x8, addend: 0x0, symName: __ZN21StatementSequenceNodeC2ERNSt3__16vectorIP14SyntaxTreeNodeNS0_9allocatorIS3_EEEER9Variables, symObjAddr: 0x6830, symBinAddr: 0x10000B490, symSize: 0x50 }
  - { offsetInCU: 0x21115, offset: 0x32544, size: 0x8, addend: 0x0, symName: __ZNSt3__16vectorIP14SyntaxTreeNodeNS_9allocatorIS2_EEEC1ERKS5_, symObjAddr: 0x6880, symBinAddr: 0x10000B4E0, symSize: 0x30 }
  - { offsetInCU: 0x2114E, offset: 0x3257D, size: 0x8, addend: 0x0, symName: __ZNSt3__16vectorIP14SyntaxTreeNodeNS_9allocatorIS2_EEEC2ERKS5_, symObjAddr: 0x68B0, symBinAddr: 0x10000B510, symSize: 0x110 }
  - { offsetInCU: 0x211B7, offset: 0x325E6, size: 0x8, addend: 0x0, symName: __ZNSt3__116allocator_traitsINS_9allocatorIP14SyntaxTreeNodeEEE37select_on_container_copy_constructionB7v160006IS4_vvEES4_RKS4_, symObjAddr: 0x69C0, symBinAddr: 0x10000B620, symSize: 0x10 }
  - { offsetInCU: 0x211E5, offset: 0x32614, size: 0x8, addend: 0x0, symName: __ZNKSt3__16vectorIP14SyntaxTreeNodeNS_9allocatorIS2_EEE7__allocB7v160006Ev, symObjAddr: 0x69D0, symBinAddr: 0x10000B630, symSize: 0x20 }
  - { offsetInCU: 0x2120E, offset: 0x3263D, size: 0x8, addend: 0x0, symName: __ZNSt3__117__compressed_pairIPP14SyntaxTreeNodeNS_9allocatorIS2_EEEC1B7v160006IDnS5_EEOT_OT0_, symObjAddr: 0x69F0, symBinAddr: 0x10000B650, symSize: 0x30 }
  - { offsetInCU: 0x21264, offset: 0x32693, size: 0x8, addend: 0x0, symName: __ZNSt3__16vectorIP14SyntaxTreeNodeNS_9allocatorIS2_EEE16__destroy_vectorC1ERS5_, symObjAddr: 0x6A60, symBinAddr: 0x10000B6C0, symSize: 0x30 }
  - { offsetInCU: 0x2129B, offset: 0x326CA, size: 0x8, addend: 0x0, symName: __ZNSt3__16vectorIP14SyntaxTreeNodeNS_9allocatorIS2_EEE11__vallocateB7v160006Em, symObjAddr: 0x6A90, symBinAddr: 0x10000B6F0, symSize: 0xA0 }
  - { offsetInCU: 0x212DD, offset: 0x3270C, size: 0x8, addend: 0x0, symName: __ZNSt3__16vectorIP14SyntaxTreeNodeNS_9allocatorIS2_EEE18__construct_at_endIPS2_Li0EEEvT_S8_m, symObjAddr: 0x6B30, symBinAddr: 0x10000B790, symSize: 0x90 }
  - { offsetInCU: 0x2134F, offset: 0x3277E, size: 0x8, addend: 0x0, symName: __ZNSt3__128__exception_guard_exceptionsINS_6vectorIP14SyntaxTreeNodeNS_9allocatorIS3_EEE16__destroy_vectorEE10__completeB7v160006Ev, symObjAddr: 0x6BC0, symBinAddr: 0x10000B820, symSize: 0x20 }
  - { offsetInCU: 0x21373, offset: 0x327A2, size: 0x8, addend: 0x0, symName: __ZNSt3__128__exception_guard_exceptionsINS_6vectorIP14SyntaxTreeNodeNS_9allocatorIS3_EEE16__destroy_vectorEED1B7v160006Ev, symObjAddr: 0x6BE0, symBinAddr: 0x10000B840, symSize: 0x20 }
  - { offsetInCU: 0x2139B, offset: 0x327CA, size: 0x8, addend: 0x0, symName: __ZNKSt3__117__compressed_pairIPP14SyntaxTreeNodeNS_9allocatorIS2_EEE6secondB7v160006Ev, symObjAddr: 0x6C00, symBinAddr: 0x10000B860, symSize: 0x20 }
  - { offsetInCU: 0x213BF, offset: 0x327EE, size: 0x8, addend: 0x0, symName: __ZNKSt3__122__compressed_pair_elemINS_9allocatorIP14SyntaxTreeNodeEELi1ELb1EE5__getB7v160006Ev, symObjAddr: 0x6C20, symBinAddr: 0x10000B880, symSize: 0x10 }
  - { offsetInCU: 0x213E3, offset: 0x32812, size: 0x8, addend: 0x0, symName: __ZNSt3__117__compressed_pairIPP14SyntaxTreeNodeNS_9allocatorIS2_EEEC2B7v160006IDnS5_EEOT_OT0_, symObjAddr: 0x6C30, symBinAddr: 0x10000B890, symSize: 0x40 }
  - { offsetInCU: 0x21439, offset: 0x32868, size: 0x8, addend: 0x0, symName: __ZNSt3__122__compressed_pair_elemINS_9allocatorIP14SyntaxTreeNodeEELi1ELb1EEC2B7v160006IS4_vEEOT_, symObjAddr: 0x6C70, symBinAddr: 0x10000B8D0, symSize: 0x10 }
  - { offsetInCU: 0x21479, offset: 0x328A8, size: 0x8, addend: 0x0, symName: __ZNSt3__128__exception_guard_exceptionsINS_6vectorIP14SyntaxTreeNodeNS_9allocatorIS3_EEE16__destroy_vectorEEC1B7v160006ES7_, symObjAddr: 0x6C80, symBinAddr: 0x10000B8E0, symSize: 0x30 }
  - { offsetInCU: 0x214AF, offset: 0x328DE, size: 0x8, addend: 0x0, symName: __ZNSt3__128__exception_guard_exceptionsINS_6vectorIP14SyntaxTreeNodeNS_9allocatorIS3_EEE16__destroy_vectorEEC2B7v160006ES7_, symObjAddr: 0x6CB0, symBinAddr: 0x10000B910, symSize: 0x20 }
  - { offsetInCU: 0x214E5, offset: 0x32914, size: 0x8, addend: 0x0, symName: __ZNSt3__16vectorIP14SyntaxTreeNodeNS_9allocatorIS2_EEE16__destroy_vectorC2ERS5_, symObjAddr: 0x6CD0, symBinAddr: 0x10000B930, symSize: 0x20 }
  - { offsetInCU: 0x2151C, offset: 0x3294B, size: 0x8, addend: 0x0, symName: __ZNKSt3__16vectorIP14SyntaxTreeNodeNS_9allocatorIS2_EEE8max_sizeEv, symObjAddr: 0x6CF0, symBinAddr: 0x10000B950, symSize: 0x60 }
  - { offsetInCU: 0x21543, offset: 0x32972, size: 0x8, addend: 0x0, symName: __ZNKSt3__16vectorIP14SyntaxTreeNodeNS_9allocatorIS2_EEE20__throw_length_errorB7v160006Ev, symObjAddr: 0x6D50, symBinAddr: 0x10000B9B0, symSize: 0x20 }
  - { offsetInCU: 0x21567, offset: 0x32996, size: 0x8, addend: 0x0, symName: __ZNSt3__16vectorIP14SyntaxTreeNodeNS_9allocatorIS2_EEE7__allocB7v160006Ev, symObjAddr: 0x6DB0, symBinAddr: 0x10000BA10, symSize: 0x20 }
  - { offsetInCU: 0x2158B, offset: 0x329BA, size: 0x8, addend: 0x0, symName: __ZNSt3__16vectorIP14SyntaxTreeNodeNS_9allocatorIS2_EEE9__end_capB7v160006Ev, symObjAddr: 0x6DD0, symBinAddr: 0x10000BA30, symSize: 0x20 }
  - { offsetInCU: 0x215AF, offset: 0x329DE, size: 0x8, addend: 0x0, symName: __ZNKSt3__16vectorIP14SyntaxTreeNodeNS_9allocatorIS2_EEE14__annotate_newB7v160006Em, symObjAddr: 0x6DF0, symBinAddr: 0x10000BA50, symSize: 0xB0 }
  - { offsetInCU: 0x215E2, offset: 0x32A11, size: 0x8, addend: 0x0, symName: __ZNSt3__116allocator_traitsINS_9allocatorIP14SyntaxTreeNodeEEE8max_sizeB7v160006IS4_vvEEmRKS4_, symObjAddr: 0x6EA0, symBinAddr: 0x10000BB00, symSize: 0x20 }
  - { offsetInCU: 0x2160D, offset: 0x32A3C, size: 0x8, addend: 0x0, symName: __ZNSt3__19allocatorIP14SyntaxTreeNodeE8allocateB7v160006Em, symObjAddr: 0x6EC0, symBinAddr: 0x10000BB20, symSize: 0x50 }
  - { offsetInCU: 0x2163F, offset: 0x32A6E, size: 0x8, addend: 0x0, symName: __ZNSt3__117__compressed_pairIPP14SyntaxTreeNodeNS_9allocatorIS2_EEE6secondB7v160006Ev, symObjAddr: 0x6F10, symBinAddr: 0x10000BB70, symSize: 0x20 }
  - { offsetInCU: 0x21663, offset: 0x32A92, size: 0x8, addend: 0x0, symName: __ZNSt3__122__compressed_pair_elemINS_9allocatorIP14SyntaxTreeNodeEELi1ELb1EE5__getB7v160006Ev, symObjAddr: 0x6F30, symBinAddr: 0x10000BB90, symSize: 0x10 }
  - { offsetInCU: 0x21687, offset: 0x32AB6, size: 0x8, addend: 0x0, symName: __ZNSt3__117__compressed_pairIPP14SyntaxTreeNodeNS_9allocatorIS2_EEE5firstB7v160006Ev, symObjAddr: 0x6F40, symBinAddr: 0x10000BBA0, symSize: 0x20 }
  - { offsetInCU: 0x216AB, offset: 0x32ADA, size: 0x8, addend: 0x0, symName: __ZNSt3__122__compressed_pair_elemIPP14SyntaxTreeNodeLi0ELb0EE5__getB7v160006Ev, symObjAddr: 0x6F60, symBinAddr: 0x10000BBC0, symSize: 0x10 }
  - { offsetInCU: 0x216CF, offset: 0x32AFE, size: 0x8, addend: 0x0, symName: __ZNKSt3__16vectorIP14SyntaxTreeNodeNS_9allocatorIS2_EEE31__annotate_contiguous_containerB7v160006EPKvS7_S7_S7_, symObjAddr: 0x6F70, symBinAddr: 0x10000BBD0, symSize: 0x20 }
  - { offsetInCU: 0x21723, offset: 0x32B52, size: 0x8, addend: 0x0, symName: __ZNKSt3__16vectorIP14SyntaxTreeNodeNS_9allocatorIS2_EEE4dataB7v160006Ev, symObjAddr: 0x6F90, symBinAddr: 0x10000BBF0, symSize: 0x20 }
  - { offsetInCU: 0x21747, offset: 0x32B76, size: 0x8, addend: 0x0, symName: __ZNKSt3__16vectorIP14SyntaxTreeNodeNS_9allocatorIS2_EEE8capacityB7v160006Ev, symObjAddr: 0x6FB0, symBinAddr: 0x10000BC10, symSize: 0x30 }
  - { offsetInCU: 0x2176B, offset: 0x32B9A, size: 0x8, addend: 0x0, symName: __ZNKSt3__16vectorIP14SyntaxTreeNodeNS_9allocatorIS2_EEE9__end_capB7v160006Ev, symObjAddr: 0x6FF0, symBinAddr: 0x10000BC50, symSize: 0x20 }
  - { offsetInCU: 0x2178F, offset: 0x32BBE, size: 0x8, addend: 0x0, symName: __ZNKSt3__117__compressed_pairIPP14SyntaxTreeNodeNS_9allocatorIS2_EEE5firstB7v160006Ev, symObjAddr: 0x7010, symBinAddr: 0x10000BC70, symSize: 0x20 }
  - { offsetInCU: 0x217B3, offset: 0x32BE2, size: 0x8, addend: 0x0, symName: __ZNKSt3__122__compressed_pair_elemIPP14SyntaxTreeNodeLi0ELb0EE5__getB7v160006Ev, symObjAddr: 0x7030, symBinAddr: 0x10000BC90, symSize: 0x10 }
  - { offsetInCU: 0x217F0, offset: 0x32C1F, size: 0x8, addend: 0x0, symName: __ZNSt3__16vectorIP14SyntaxTreeNodeNS_9allocatorIS2_EEE21_ConstructTransactionC1B7v160006ERS5_m, symObjAddr: 0x7040, symBinAddr: 0x10000BCA0, symSize: 0x30 }
  - { offsetInCU: 0x21836, offset: 0x32C65, size: 0x8, addend: 0x0, symName: __ZNSt3__16vectorIP14SyntaxTreeNodeNS_9allocatorIS2_EEE21_ConstructTransactionD1B7v160006Ev, symObjAddr: 0x7170, symBinAddr: 0x10000BDD0, symSize: 0x20 }
  - { offsetInCU: 0x2185E, offset: 0x32C8D, size: 0x8, addend: 0x0, symName: __ZNSt3__16vectorIP14SyntaxTreeNodeNS_9allocatorIS2_EEE21_ConstructTransactionC2B7v160006ERS5_m, symObjAddr: 0x7190, symBinAddr: 0x10000BDF0, symSize: 0x40 }
  - { offsetInCU: 0x218A4, offset: 0x32CD3, size: 0x8, addend: 0x0, symName: __ZNSt3__129_AllocatorDestroyRangeReverseINS_9allocatorIP14SyntaxTreeNodeEEPS3_EC1B7v160006ERS4_RS5_S8_, symObjAddr: 0x7230, symBinAddr: 0x10000BE90, symSize: 0x40 }
  - { offsetInCU: 0x218F9, offset: 0x32D28, size: 0x8, addend: 0x0, symName: __ZNSt3__116allocator_traitsINS_9allocatorIP14SyntaxTreeNodeEEE9constructB7v160006IS3_JRS3_EvvEEvRS4_PT_DpOT0_, symObjAddr: 0x7270, symBinAddr: 0x10000BED0, symSize: 0x30 }
  - { offsetInCU: 0x2194D, offset: 0x32D7C, size: 0x8, addend: 0x0, symName: __ZNSt3__128__exception_guard_exceptionsINS_29_AllocatorDestroyRangeReverseINS_9allocatorIP14SyntaxTreeNodeEEPS4_EEE10__completeB7v160006Ev, symObjAddr: 0x72A0, symBinAddr: 0x10000BF00, symSize: 0x20 }
  - { offsetInCU: 0x21971, offset: 0x32DA0, size: 0x8, addend: 0x0, symName: __ZNSt3__128__exception_guard_exceptionsINS_29_AllocatorDestroyRangeReverseINS_9allocatorIP14SyntaxTreeNodeEEPS4_EEED1B7v160006Ev, symObjAddr: 0x72C0, symBinAddr: 0x10000BF20, symSize: 0x20 }
  - { offsetInCU: 0x21999, offset: 0x32DC8, size: 0x8, addend: 0x0, symName: __ZNSt3__128__exception_guard_exceptionsINS_29_AllocatorDestroyRangeReverseINS_9allocatorIP14SyntaxTreeNodeEEPS4_EEEC1B7v160006ES7_, symObjAddr: 0x72E0, symBinAddr: 0x10000BF40, symSize: 0x40 }
  - { offsetInCU: 0x219CF, offset: 0x32DFE, size: 0x8, addend: 0x0, symName: __ZNSt3__128__exception_guard_exceptionsINS_29_AllocatorDestroyRangeReverseINS_9allocatorIP14SyntaxTreeNodeEEPS4_EEEC2B7v160006ES7_, symObjAddr: 0x7320, symBinAddr: 0x10000BF80, symSize: 0x30 }
  - { offsetInCU: 0x21A05, offset: 0x32E34, size: 0x8, addend: 0x0, symName: __ZNSt3__129_AllocatorDestroyRangeReverseINS_9allocatorIP14SyntaxTreeNodeEEPS3_EC2B7v160006ERS4_RS5_S8_, symObjAddr: 0x7350, symBinAddr: 0x10000BFB0, symSize: 0x40 }
  - { offsetInCU: 0x21A5A, offset: 0x32E89, size: 0x8, addend: 0x0, symName: __ZNSt3__128__exception_guard_exceptionsINS_29_AllocatorDestroyRangeReverseINS_9allocatorIP14SyntaxTreeNodeEEPS4_EEED2B7v160006Ev, symObjAddr: 0x73C0, symBinAddr: 0x10000C020, symSize: 0x40 }
  - { offsetInCU: 0x21A82, offset: 0x32EB1, size: 0x8, addend: 0x0, symName: __ZNKSt3__129_AllocatorDestroyRangeReverseINS_9allocatorIP14SyntaxTreeNodeEEPS3_EclB7v160006Ev, symObjAddr: 0x7400, symBinAddr: 0x10000C060, symSize: 0x60 }
  - { offsetInCU: 0x21AA6, offset: 0x32ED5, size: 0x8, addend: 0x0, symName: __ZNSt3__116reverse_iteratorIPP14SyntaxTreeNodeEC1B7v160006ES3_, symObjAddr: 0x74D0, symBinAddr: 0x10000C130, symSize: 0x30 }
  - { offsetInCU: 0x21ADC, offset: 0x32F0B, size: 0x8, addend: 0x0, symName: __ZNSt3__116allocator_traitsINS_9allocatorIP14SyntaxTreeNodeEEE7destroyB7v160006IS3_vvEEvRS4_PT_, symObjAddr: 0x7540, symBinAddr: 0x10000C1A0, symSize: 0x20 }
  - { offsetInCU: 0x21B16, offset: 0x32F45, size: 0x8, addend: 0x0, symName: __ZNSt3__116reverse_iteratorIPP14SyntaxTreeNodeEppB7v160006Ev, symObjAddr: 0x7580, symBinAddr: 0x10000C1E0, symSize: 0x20 }
  - { offsetInCU: 0x21B3A, offset: 0x32F69, size: 0x8, addend: 0x0, symName: __ZNKSt3__116reverse_iteratorIPP14SyntaxTreeNodeE4baseB7v160006Ev, symObjAddr: 0x75A0, symBinAddr: 0x10000C200, symSize: 0x20 }
  - { offsetInCU: 0x21B63, offset: 0x32F92, size: 0x8, addend: 0x0, symName: __ZNSt3__119__to_address_helperINS_16reverse_iteratorIPP14SyntaxTreeNodeEEvE6__callB7v160006ERKS5_, symObjAddr: 0x75F0, symBinAddr: 0x10000C250, symSize: 0x40 }
  - { offsetInCU: 0x21B85, offset: 0x32FB4, size: 0x8, addend: 0x0, symName: __ZNKSt3__116reverse_iteratorIPP14SyntaxTreeNodeEptB7v160006Ev, symObjAddr: 0x7630, symBinAddr: 0x10000C290, symSize: 0x30 }
  - { offsetInCU: 0x21BA9, offset: 0x32FD8, size: 0x8, addend: 0x0, symName: __ZNSt3__116reverse_iteratorIPP14SyntaxTreeNodeEC2B7v160006ES3_, symObjAddr: 0x7720, symBinAddr: 0x10000C380, symSize: 0x30 }
  - { offsetInCU: 0x21BDF, offset: 0x3300E, size: 0x8, addend: 0x0, symName: __ZNSt3__16vectorIP14SyntaxTreeNodeNS_9allocatorIS2_EEE21_ConstructTransactionD2B7v160006Ev, symObjAddr: 0x7750, symBinAddr: 0x10000C3B0, symSize: 0x20 }
  - { offsetInCU: 0x21C07, offset: 0x33036, size: 0x8, addend: 0x0, symName: __ZNSt3__128__exception_guard_exceptionsINS_6vectorIP14SyntaxTreeNodeNS_9allocatorIS3_EEE16__destroy_vectorEED2B7v160006Ev, symObjAddr: 0x7770, symBinAddr: 0x10000C3D0, symSize: 0x40 }
  - { offsetInCU: 0x21C2F, offset: 0x3305E, size: 0x8, addend: 0x0, symName: __ZNSt3__16vectorIP14SyntaxTreeNodeNS_9allocatorIS2_EEE16__destroy_vectorclB7v160006Ev, symObjAddr: 0x77B0, symBinAddr: 0x10000C410, symSize: 0x90 }
  - { offsetInCU: 0x21C53, offset: 0x33082, size: 0x8, addend: 0x0, symName: __ZNKSt3__16vectorIP14SyntaxTreeNodeNS_9allocatorIS2_EEE17__annotate_deleteB7v160006Ev, symObjAddr: 0x7840, symBinAddr: 0x10000C4A0, symSize: 0xB0 }
  - { offsetInCU: 0x21C77, offset: 0x330A6, size: 0x8, addend: 0x0, symName: __ZNSt3__16vectorIP14SyntaxTreeNodeNS_9allocatorIS2_EEE7__clearB7v160006Ev, symObjAddr: 0x7900, symBinAddr: 0x10000C560, symSize: 0x20 }
  - { offsetInCU: 0x21C9B, offset: 0x330CA, size: 0x8, addend: 0x0, symName: __ZNSt3__116allocator_traitsINS_9allocatorIP14SyntaxTreeNodeEEE10deallocateB7v160006ERS4_PS3_m, symObjAddr: 0x7920, symBinAddr: 0x10000C580, symSize: 0x30 }
  - { offsetInCU: 0x21CDC, offset: 0x3310B, size: 0x8, addend: 0x0, symName: __ZNSt3__16vectorIP14SyntaxTreeNodeNS_9allocatorIS2_EEE22__base_destruct_at_endB7v160006EPS2_, symObjAddr: 0x7950, symBinAddr: 0x10000C5B0, symSize: 0x80 }
  - { offsetInCU: 0x21D1E, offset: 0x3314D, size: 0x8, addend: 0x0, symName: __ZNSt3__19allocatorIP14SyntaxTreeNodeE10deallocateB7v160006EPS2_m, symObjAddr: 0x79D0, symBinAddr: 0x10000C630, symSize: 0x40 }
  - { offsetInCU: 0x21D5E, offset: 0x3318D, size: 0x8, addend: 0x0, symName: __ZNSt3__16vectorIP14SyntaxTreeNodeNS_9allocatorIS2_EEED2B7v160006Ev, symObjAddr: 0x7A10, symBinAddr: 0x10000C670, symSize: 0x40 }
  - { offsetInCU: 0x21D86, offset: 0x331B5, size: 0x8, addend: 0x0, symName: __ZNSt3__19basic_iosIcNS_11char_traitsIcEEEC2B7v160006Ev, symObjAddr: 0x7A50, symBinAddr: 0x10000C6B0, symSize: 0x40 }
  - { offsetInCU: 0x21DAE, offset: 0x331DD, size: 0x8, addend: 0x0, symName: __ZNSt3__113basic_istreamIcNS_11char_traitsIcEEEC2B7v160006EPNS_15basic_streambufIcS2_EE, symObjAddr: 0x7A90, symBinAddr: 0x10000C6F0, symSize: 0x50 }
  - { offsetInCU: 0x21DF0, offset: 0x3321F, size: 0x8, addend: 0x0, symName: __ZNSt3__113basic_filebufIcNS_11char_traitsIcEEE4openERKNS_12basic_stringIcS2_NS_9allocatorIcEEEEj, symObjAddr: 0x7AE0, symBinAddr: 0x10000C740, symSize: 0x40 }
  - { offsetInCU: 0x21E33, offset: 0x33262, size: 0x8, addend: 0x0, symName: __ZNSt3__19basic_iosIcNS_11char_traitsIcEEE8setstateB7v160006Ej, symObjAddr: 0x7B20, symBinAddr: 0x10000C780, symSize: 0x30 }
  - { offsetInCU: 0x21E66, offset: 0x33295, size: 0x8, addend: 0x0, symName: __ZNSt3__18ios_baseC2B7v160006Ev, symObjAddr: 0x7B50, symBinAddr: 0x10000C7B0, symSize: 0x20 }
  - { offsetInCU: 0x21E8E, offset: 0x332BD, size: 0x8, addend: 0x0, symName: __ZNSt3__19basic_iosIcNS_11char_traitsIcEEE4initB7v160006EPNS_15basic_streambufIcS2_EE, symObjAddr: 0x7B70, symBinAddr: 0x10000C7D0, symSize: 0x50 }
  - { offsetInCU: 0x21EC4, offset: 0x332F3, size: 0x8, addend: 0x0, symName: __ZNSt3__111char_traitsIcE3eofEv, symObjAddr: 0x7BC0, symBinAddr: 0x10000C820, symSize: 0x10 }
  - { offsetInCU: 0x21ED8, offset: 0x33307, size: 0x8, addend: 0x0, symName: __ZNKSt3__112basic_stringIcNS_11char_traitsIcEENS_9allocatorIcEEE5c_strB7v160006Ev, symObjAddr: 0x7BD0, symBinAddr: 0x10000C830, symSize: 0x20 }
  - { offsetInCU: 0x21EFC, offset: 0x3332B, size: 0x8, addend: 0x0, symName: __ZNSt3__18ios_base8setstateB7v160006Ej, symObjAddr: 0x7BF0, symBinAddr: 0x10000C850, symSize: 0x30 }
  - { offsetInCU: 0x21F32, offset: 0x33361, size: 0x8, addend: 0x0, symName: __ZNKSt3__19basic_iosIcNS_11char_traitsIcEEE5widenB7v160006Ec, symObjAddr: 0x7E40, symBinAddr: 0x10000CAA0, symSize: 0x80 }
  - { offsetInCU: 0x21F86, offset: 0x333B5, size: 0x8, addend: 0x0, symName: __ZNKSt3__113basic_istreamIcNS_11char_traitsIcEEE6sentrycvbB7v160006Ev, symObjAddr: 0x7EC0, symBinAddr: 0x10000CB20, symSize: 0x20 }
  - { offsetInCU: 0x21FAA, offset: 0x333D9, size: 0x8, addend: 0x0, symName: __ZNSt3__112basic_stringIcNS_11char_traitsIcEENS_9allocatorIcEEE5clearB7v160006Ev, symObjAddr: 0x7EE0, symBinAddr: 0x10000CB40, symSize: 0xA0 }
  - { offsetInCU: 0x21FD1, offset: 0x33400, size: 0x8, addend: 0x0, symName: __ZNKSt3__19basic_iosIcNS_11char_traitsIcEEE5rdbufB7v160006Ev, symObjAddr: 0x7F80, symBinAddr: 0x10000CBE0, symSize: 0x20 }
  - { offsetInCU: 0x21FF8, offset: 0x33427, size: 0x8, addend: 0x0, symName: __ZNSt3__115basic_streambufIcNS_11char_traitsIcEEE6sbumpcB7v160006Ev, symObjAddr: 0x7FA0, symBinAddr: 0x10000CC00, symSize: 0x60 }
  - { offsetInCU: 0x2201C, offset: 0x3344B, size: 0x8, addend: 0x0, symName: __ZNSt3__111char_traitsIcE11eq_int_typeEii, symObjAddr: 0x8000, symBinAddr: 0x10000CC60, symSize: 0x20 }
  - { offsetInCU: 0x2204C, offset: 0x3347B, size: 0x8, addend: 0x0, symName: __ZNSt3__111char_traitsIcE12to_char_typeEi, symObjAddr: 0x8020, symBinAddr: 0x10000CC80, symSize: 0x10 }
  - { offsetInCU: 0x2206E, offset: 0x3349D, size: 0x8, addend: 0x0, symName: __ZNSt3__111char_traitsIcE2eqEcc, symObjAddr: 0x8030, symBinAddr: 0x10000CC90, symSize: 0x30 }
  - { offsetInCU: 0x2209E, offset: 0x334CD, size: 0x8, addend: 0x0, symName: __ZNKSt3__112basic_stringIcNS_11char_traitsIcEENS_9allocatorIcEEE8max_sizeB7v160006Ev, symObjAddr: 0x8060, symBinAddr: 0x10000CCC0, symSize: 0xA0 }
  - { offsetInCU: 0x220EE, offset: 0x3351D, size: 0x8, addend: 0x0, symName: __ZNSt3__18ios_base18__setstate_nothrowB7v160006Ej, symObjAddr: 0x8100, symBinAddr: 0x10000CD60, symSize: 0x50 }
  - { offsetInCU: 0x22121, offset: 0x33550, size: 0x8, addend: 0x0, symName: __ZNKSt3__19basic_iosIcNS_11char_traitsIcEEE10exceptionsB7v160006Ev, symObjAddr: 0x8150, symBinAddr: 0x10000CDB0, symSize: 0x20 }
  - { offsetInCU: 0x22145, offset: 0x33574, size: 0x8, addend: 0x0, symName: __ZNSt3__111char_traitsIcE6assignERcRKc, symObjAddr: 0x8180, symBinAddr: 0x10000CDE0, symSize: 0x20 }
  - { offsetInCU: 0x22175, offset: 0x335A4, size: 0x8, addend: 0x0, symName: __ZNSt3__112basic_stringIcNS_11char_traitsIcEENS_9allocatorIcEEE18__get_long_pointerB7v160006Ev, symObjAddr: 0x81A0, symBinAddr: 0x10000CE00, symSize: 0x20 }
  - { offsetInCU: 0x22199, offset: 0x335C8, size: 0x8, addend: 0x0, symName: __ZNSt3__112basic_stringIcNS_11char_traitsIcEENS_9allocatorIcEEE15__set_long_sizeB7v160006Em, symObjAddr: 0x81C0, symBinAddr: 0x10000CE20, symSize: 0x30 }
  - { offsetInCU: 0x221CC, offset: 0x335FB, size: 0x8, addend: 0x0, symName: __ZNSt3__112basic_stringIcNS_11char_traitsIcEENS_9allocatorIcEEE19__get_short_pointerB7v160006Ev, symObjAddr: 0x81F0, symBinAddr: 0x10000CE50, symSize: 0x30 }
  - { offsetInCU: 0x221F0, offset: 0x3361F, size: 0x8, addend: 0x0, symName: __ZNSt3__112basic_stringIcNS_11char_traitsIcEENS_9allocatorIcEEE16__set_short_sizeB7v160006Em, symObjAddr: 0x8220, symBinAddr: 0x10000CE80, symSize: 0x50 }
  - { offsetInCU: 0x22223, offset: 0x33652, size: 0x8, addend: 0x0, symName: __ZNSt3__114pointer_traitsIPcE10pointer_toB7v160006ERc, symObjAddr: 0x8270, symBinAddr: 0x10000CED0, symSize: 0x10 }
  - { offsetInCU: 0x22245, offset: 0x33674, size: 0x8, addend: 0x0, symName: __ZNKSt3__18ios_base5rdbufB7v160006Ev, symObjAddr: 0x8280, symBinAddr: 0x10000CEE0, symSize: 0x20 }
  - { offsetInCU: 0x22269, offset: 0x33698, size: 0x8, addend: 0x0, symName: __ZNSt3__111char_traitsIcE11to_int_typeEc, symObjAddr: 0x82A0, symBinAddr: 0x10000CF00, symSize: 0x10 }
  - { offsetInCU: 0x22295, offset: 0x336C4, size: 0x8, addend: 0x0, symName: __ZNSt3__116allocator_traitsINS_9allocatorIcEEE8max_sizeB7v160006IS2_vvEEmRKS2_, symObjAddr: 0x82B0, symBinAddr: 0x10000CF10, symSize: 0x20 }
  - { offsetInCU: 0x222C0, offset: 0x336EF, size: 0x8, addend: 0x0, symName: __ZNKSt3__112basic_stringIcNS_11char_traitsIcEENS_9allocatorIcEEE7__allocB7v160006Ev, symObjAddr: 0x82D0, symBinAddr: 0x10000CF30, symSize: 0x20 }
  - { offsetInCU: 0x222E4, offset: 0x33713, size: 0x8, addend: 0x0, symName: __ZNKSt3__117__compressed_pairINS_12basic_stringIcNS_11char_traitsIcEENS_9allocatorIcEEE5__repES5_E6secondB7v160006Ev, symObjAddr: 0x82F0, symBinAddr: 0x10000CF50, symSize: 0x20 }
  - { offsetInCU: 0x22308, offset: 0x33737, size: 0x8, addend: 0x0, symName: __ZNKSt3__122__compressed_pair_elemINS_9allocatorIcEELi1ELb1EE5__getB7v160006Ev, symObjAddr: 0x8310, symBinAddr: 0x10000CF70, symSize: 0x10 }
  - { offsetInCU: 0x2232C, offset: 0x3375B, size: 0x8, addend: 0x0, symName: __ZNKSt3__18ios_base10exceptionsB7v160006Ev, symObjAddr: 0x8320, symBinAddr: 0x10000CF80, symSize: 0x20 }
  - { offsetInCU: 0x22380, offset: 0x337AF, size: 0x8, addend: 0x0, symName: __ZNKSt3__15ctypeIcE5widenB7v160006Ec, symObjAddr: 0x8370, symBinAddr: 0x10000CFD0, symSize: 0x30 }
  - { offsetInCU: 0x223B3, offset: 0x337E2, size: 0x8, addend: 0x0, symName: __ZNKSt3__19basic_iosIcNS_11char_traitsIcEEE4failB7v160006Ev, symObjAddr: 0x83A0, symBinAddr: 0x10000D000, symSize: 0x20 }
  - { offsetInCU: 0x223D7, offset: 0x33806, size: 0x8, addend: 0x0, symName: __ZNKSt3__18ios_base4failB7v160006Ev, symObjAddr: 0x83C0, symBinAddr: 0x10000D020, symSize: 0x20 }
  - { offsetInCU: 0x223FE, offset: 0x3382D, size: 0x8, addend: 0x0, symName: __ZNSt3__114basic_iostreamIcNS_11char_traitsIcEEEC2B7v160006EPNS_15basic_streambufIcS2_EE, symObjAddr: 0x83E0, symBinAddr: 0x10000D040, symSize: 0xA0 }
  - { offsetInCU: 0x22441, offset: 0x33870, size: 0x8, addend: 0x0, symName: __ZNSt3__115basic_stringbufIcNS_11char_traitsIcEENS_9allocatorIcEEEC1B7v160006ERKNS_12basic_stringIcS2_S4_EEj, symObjAddr: 0x8480, symBinAddr: 0x10000D0E0, symSize: 0x30 }
  - { offsetInCU: 0x22485, offset: 0x338B4, size: 0x8, addend: 0x0, symName: __ZNSt3__113basic_ostreamIcNS_11char_traitsIcEEEC2B7v160006Ev, symObjAddr: 0x84B0, symBinAddr: 0x10000D110, symSize: 0x30 }
  - { offsetInCU: 0x224B9, offset: 0x338E8, size: 0x8, addend: 0x0, symName: __ZNSt3__115basic_stringbufIcNS_11char_traitsIcEENS_9allocatorIcEEEC2B7v160006ERKNS_12basic_stringIcS2_S4_EEj, symObjAddr: 0x84E0, symBinAddr: 0x10000D140, symSize: 0xA0 }
  - { offsetInCU: 0x224FD, offset: 0x3392C, size: 0x8, addend: 0x0, symName: __ZNKSt3__112basic_stringIcNS_11char_traitsIcEENS_9allocatorIcEEE13get_allocatorB7v160006Ev, symObjAddr: 0x8580, symBinAddr: 0x10000D1E0, symSize: 0x20 }
  - { offsetInCU: 0x22521, offset: 0x33950, size: 0x8, addend: 0x0, symName: __ZNSt3__112basic_stringIcNS_11char_traitsIcEENS_9allocatorIcEEEC1B7v160006ERKS4_, symObjAddr: 0x85A0, symBinAddr: 0x10000D200, symSize: 0x30 }
  - { offsetInCU: 0x22558, offset: 0x33987, size: 0x8, addend: 0x0, symName: __ZNSt3__112basic_stringIcNS_11char_traitsIcEENS_9allocatorIcEEEC2B7v160006ERKS4_, symObjAddr: 0x85D0, symBinAddr: 0x10000D230, symSize: 0x50 }
  - { offsetInCU: 0x2258F, offset: 0x339BE, size: 0x8, addend: 0x0, symName: __ZNSt3__117__compressed_pairINS_12basic_stringIcNS_11char_traitsIcEENS_9allocatorIcEEE5__repES5_EC1B7v160006INS_18__default_init_tagERKS5_EEOT_OT0_, symObjAddr: 0x8620, symBinAddr: 0x10000D280, symSize: 0x30 }
  - { offsetInCU: 0x225E5, offset: 0x33A14, size: 0x8, addend: 0x0, symName: __ZNSt3__117__compressed_pairINS_12basic_stringIcNS_11char_traitsIcEENS_9allocatorIcEEE5__repES5_EC2B7v160006INS_18__default_init_tagERKS5_EEOT_OT0_, symObjAddr: 0x8650, symBinAddr: 0x10000D2B0, symSize: 0x40 }
  - { offsetInCU: 0x2263B, offset: 0x33A6A, size: 0x8, addend: 0x0, symName: __ZNSt3__122__compressed_pair_elemINS_9allocatorIcEELi1ELb1EEC2B7v160006IRKS2_vEEOT_, symObjAddr: 0x8690, symBinAddr: 0x10000D2F0, symSize: 0x10 }
  - { offsetInCU: 0x2267B, offset: 0x33AAA, size: 0x8, addend: 0x0, symName: __ZNKSt3__18ios_base5widthB7v160006Ev, symObjAddr: 0x86A0, symBinAddr: 0x10000D300, symSize: 0x20 }
  - { offsetInCU: 0x226A2, offset: 0x33AD1, size: 0x8, addend: 0x0, symName: __ZNSt3__115basic_streambufIcNS_11char_traitsIcEEE5sgetcB7v160006Ev, symObjAddr: 0x86C0, symBinAddr: 0x10000D320, symSize: 0x50 }
  - { offsetInCU: 0x226C6, offset: 0x33AF5, size: 0x8, addend: 0x0, symName: __ZNKSt3__15ctypeIcE2isB7v160006Ejc, symObjAddr: 0x8710, symBinAddr: 0x10000D370, symSize: 0x70 }
  - { offsetInCU: 0x22708, offset: 0x33B37, size: 0x8, addend: 0x0, symName: __ZNSt3__18ios_base5widthB7v160006El, symObjAddr: 0x8780, symBinAddr: 0x10000D3E0, symSize: 0x30 }
  - { offsetInCU: 0x2274C, offset: 0x33B7B, size: 0x8, addend: 0x0, symName: __Z7isasciii, symObjAddr: 0x87B0, symBinAddr: 0x10000D410, symSize: 0x20 }
  - { offsetInCU: 0x22797, offset: 0x33BC6, size: 0x8, addend: 0x0, symName: __ZNKSt3__113basic_ostreamIcNS_11char_traitsIcEEE6sentrycvbB7v160006Ev, symObjAddr: 0x89C0, symBinAddr: 0x10000D620, symSize: 0x20 }
  - { offsetInCU: 0x227BB, offset: 0x33BEA, size: 0x8, addend: 0x0, symName: __ZNSt3__119ostreambuf_iteratorIcNS_11char_traitsIcEEEC1B7v160006ERNS_13basic_ostreamIcS2_EE, symObjAddr: 0x8C00, symBinAddr: 0x10000D860, symSize: 0x30 }
  - { offsetInCU: 0x227F1, offset: 0x33C20, size: 0x8, addend: 0x0, symName: __ZNKSt3__18ios_base5flagsB7v160006Ev, symObjAddr: 0x8C30, symBinAddr: 0x10000D890, symSize: 0x20 }
  - { offsetInCU: 0x22818, offset: 0x33C47, size: 0x8, addend: 0x0, symName: __ZNKSt3__19basic_iosIcNS_11char_traitsIcEEE4fillB7v160006Ev, symObjAddr: 0x8C50, symBinAddr: 0x10000D8B0, symSize: 0x70 }
  - { offsetInCU: 0x2283F, offset: 0x33C6E, size: 0x8, addend: 0x0, symName: __ZNKSt3__119ostreambuf_iteratorIcNS_11char_traitsIcEEE6failedB7v160006Ev, symObjAddr: 0x8CC0, symBinAddr: 0x10000D920, symSize: 0x20 }
  - { offsetInCU: 0x22863, offset: 0x33C92, size: 0x8, addend: 0x0, symName: __ZNSt3__115basic_streambufIcNS_11char_traitsIcEEE5sputnB7v160006EPKcl, symObjAddr: 0x8CE0, symBinAddr: 0x10000D940, symSize: 0x30 }
  - { offsetInCU: 0x228A3, offset: 0x33CD2, size: 0x8, addend: 0x0, symName: __ZNSt3__112basic_stringIcNS_11char_traitsIcEENS_9allocatorIcEEEC1B7v160006Emc, symObjAddr: 0x8D10, symBinAddr: 0x10000D970, symSize: 0x30 }
  - { offsetInCU: 0x228E9, offset: 0x33D18, size: 0x8, addend: 0x0, symName: __ZNSt3__112basic_stringIcNS_11char_traitsIcEENS_9allocatorIcEEE4dataB7v160006Ev, symObjAddr: 0x8D40, symBinAddr: 0x10000D9A0, symSize: 0x30 }
  - { offsetInCU: 0x2290D, offset: 0x33D3C, size: 0x8, addend: 0x0, symName: __ZNSt3__112basic_stringIcNS_11char_traitsIcEENS_9allocatorIcEEEC2B7v160006Emc, symObjAddr: 0x8D70, symBinAddr: 0x10000D9D0, symSize: 0x50 }
  - { offsetInCU: 0x22953, offset: 0x33D82, size: 0x8, addend: 0x0, symName: __ZNSt3__112basic_stringIcNS_11char_traitsIcEENS_9allocatorIcEEE13__get_pointerB7v160006Ev, symObjAddr: 0x8DD0, symBinAddr: 0x10000DA30, symSize: 0x50 }
  - { offsetInCU: 0x22977, offset: 0x33DA6, size: 0x8, addend: 0x0, symName: __ZNSt3__119ostreambuf_iteratorIcNS_11char_traitsIcEEEC2B7v160006ERNS_13basic_ostreamIcS2_EE, symObjAddr: 0x8E20, symBinAddr: 0x10000DA80, symSize: 0x4D }
  - { offsetInCU: 0x49, offset: 0x33FB4, size: 0x8, addend: 0x0, symName: __ZNSt3__1L19piecewise_constructE, symObjAddr: 0xAC81, symBinAddr: 0x10001786C, symSize: 0x0 }
  - { offsetInCU: 0x84, offset: 0x33FEF, size: 0x8, addend: 0x0, symName: __ZNSt3__16ranges5__cpo9iter_moveE, symObjAddr: 0xAC82, symBinAddr: 0x10001786D, symSize: 0x0 }
  - { offsetInCU: 0x9CB8, offset: 0x3DC23, size: 0x8, addend: 0x0, symName: __ZNSt3__1eqB7v160006ERKNS_14__map_iteratorINS_15__tree_iteratorINS_12__value_typeINS_12basic_stringIcNS_11char_traitsIcEENS_9allocatorIcEEEEiEEPNS_11__tree_nodeIS9_PvEElEEEESH_, symObjAddr: 0x130, symBinAddr: 0x10000DC00, symSize: 0x30 }
  - { offsetInCU: 0x9CF5, offset: 0x3DC60, size: 0x8, addend: 0x0, symName: __ZNSt3__1neB7v160006ERKNS_21__hash_const_iteratorIPNS_11__hash_nodeINS_12basic_stringIcNS_11char_traitsIcEENS_9allocatorIcEEEEPvEEEESD_, symObjAddr: 0x520, symBinAddr: 0x10000DFD0, symSize: 0x30 }
  - { offsetInCU: 0xA978, offset: 0x3E8E3, size: 0x8, addend: 0x0, symName: __ZNSt3__1neB7v160006IPP14SyntaxTreeNodeEEbRKNS_11__wrap_iterIT_EES8_, symObjAddr: 0x780, symBinAddr: 0x10000E230, symSize: 0x30 }
  - { offsetInCU: 0xA9BB, offset: 0x3E926, size: 0x8, addend: 0x0, symName: __ZNSt3__1neB7v160006ERKNS_14__map_iteratorINS_15__tree_iteratorINS_12__value_typeINS_12basic_stringIcNS_11char_traitsIcEENS_9allocatorIcEEEEiEEPNS_11__tree_nodeIS9_PvEElEEEESH_, symObjAddr: 0xE20, symBinAddr: 0x10000E8D0, symSize: 0x30 }
  - { offsetInCU: 0xAACB, offset: 0x3EA36, size: 0x8, addend: 0x0, symName: __ZNSt3__1eqB7v160006IPP14SyntaxTreeNodeEEbRKNS_11__wrap_iterIT_EES8_, symObjAddr: 0xFA0, symBinAddr: 0x10000EA50, symSize: 0x40 }
  - { offsetInCU: 0xAB0E, offset: 0x3EA79, size: 0x8, addend: 0x0, symName: __ZNSt3__13getB7v160006ILm0EKNS_12basic_stringIcNS_11char_traitsIcEENS_9allocatorIcEEEEiEERNS_13tuple_elementIXT_ENS_4pairIT0_T1_EEE4typeERSC_, symObjAddr: 0x1050, symBinAddr: 0x10000EB00, symSize: 0x20 }
  - { offsetInCU: 0xAB57, offset: 0x3EAC2, size: 0x8, addend: 0x0, symName: __ZNSt3__13getB7v160006ILm1EKNS_12basic_stringIcNS_11char_traitsIcEENS_9allocatorIcEEEEiEERNS_13tuple_elementIXT_ENS_4pairIT0_T1_EEE4typeERSC_, symObjAddr: 0x1070, symBinAddr: 0x10000EB20, symSize: 0x20 }
  - { offsetInCU: 0xAC51, offset: 0x3EBBC, size: 0x8, addend: 0x0, symName: __ZNSt3__116forward_as_tupleB7v160006IJRKNS_12basic_stringIcNS_11char_traitsIcEENS_9allocatorIcEEEEEEENS_5tupleIJDpOT_EEESC_, symObjAddr: 0x11E0, symBinAddr: 0x10000EC90, symSize: 0x30 }
  - { offsetInCU: 0xAC8A, offset: 0x3EBF5, size: 0x8, addend: 0x0, symName: __ZNSt3__116forward_as_tupleB7v160006IJEEENS_5tupleIJDpOT_EEES4_, symObjAddr: 0x1210, symBinAddr: 0x10000ECC0, symSize: 0x10 }
  - { offsetInCU: 0xACAE, offset: 0x3EC19, size: 0x8, addend: 0x0, symName: __ZNSt3__1ltB7v160006ENS_15strong_orderingENS_20_CmpUnspecifiedParamE, symObjAddr: 0x18E0, symBinAddr: 0x10000F2B0, symSize: 0x20 }
  - { offsetInCU: 0xACE8, offset: 0x3EC53, size: 0x8, addend: 0x0, symName: __ZNSt3__1ssB7v160006IcNS_11char_traitsIcEENS_9allocatorIcEEEEDaRKNS_12basic_stringIT_T0_T1_EESC_, symObjAddr: 0x1900, symBinAddr: 0x10000F2D0, symSize: 0x60 }
  - { offsetInCU: 0xAD5C, offset: 0x3ECC7, size: 0x8, addend: 0x0, symName: __ZNSt3__1ssB7v160006IcNS_11char_traitsIcEEEEDaNS_17basic_string_viewIT_T0_EES7_, symObjAddr: 0x1990, symBinAddr: 0x10000F360, symSize: 0x90 }
  - { offsetInCU: 0xADAB, offset: 0x3ED16, size: 0x8, addend: 0x0, symName: __ZNSt3__17launderB7v160006IKNS_4pairIKNS_12basic_stringIcNS_11char_traitsIcEENS_9allocatorIcEEEEiEEEEPT_SC_, symObjAddr: 0x1F80, symBinAddr: 0x10000F400, symSize: 0x20 }
  - { offsetInCU: 0xADE2, offset: 0x3ED4D, size: 0x8, addend: 0x0, symName: __ZNSt3__19__launderB7v160006IKNS_4pairIKNS_12basic_stringIcNS_11char_traitsIcEENS_9allocatorIcEEEEiEEEEPT_SC_, symObjAddr: 0x1FA0, symBinAddr: 0x10000F420, symSize: 0x10 }
  - { offsetInCU: 0xAE5E, offset: 0x3EDC9, size: 0x8, addend: 0x0, symName: __ZNSt3__112construct_atB7v160006INS_4pairIKNS_12basic_stringIcNS_11char_traitsIcEENS_9allocatorIcEEEEiEEJRKNS_21piecewise_construct_tENS_5tupleIJRS8_EEENSD_IJEEEEPS9_EEPT_SJ_DpOT0_, symObjAddr: 0x2440, symBinAddr: 0x10000F6F0, symSize: 0x50 }
  - { offsetInCU: 0xAF02, offset: 0x3EE6D, size: 0x8, addend: 0x0, symName: __ZNSt3__13getB7v160006ILm0EJRKNS_12basic_stringIcNS_11char_traitsIcEENS_9allocatorIcEEEEEEERNS_13tuple_elementIXT_ENS_5tupleIJDpT0_EEEE4typeERSD_, symObjAddr: 0x2540, symBinAddr: 0x10000F7F0, symSize: 0x20 }
  - { offsetInCU: 0xAF45, offset: 0x3EEB0, size: 0x8, addend: 0x0, symName: __ZNSt3__127__tree_balance_after_insertB7v160006IPNS_16__tree_node_baseIPvEEEEvT_S5_, symObjAddr: 0x25F0, symBinAddr: 0x10000F890, symSize: 0x320 }
  - { offsetInCU: 0xAFC1, offset: 0x3EF2C, size: 0x8, addend: 0x0, symName: __ZNSt3__120__tree_is_left_childB7v160006IPNS_16__tree_node_baseIPvEEEEbT_, symObjAddr: 0x2950, symBinAddr: 0x10000FBF0, symSize: 0x30 }
  - { offsetInCU: 0xAFF6, offset: 0x3EF61, size: 0x8, addend: 0x0, symName: __ZNSt3__118__tree_left_rotateB7v160006IPNS_16__tree_node_baseIPvEEEEvT_, symObjAddr: 0x2980, symBinAddr: 0x10000FC20, symSize: 0xD0 }
  - { offsetInCU: 0xB038, offset: 0x3EFA3, size: 0x8, addend: 0x0, symName: __ZNSt3__119__tree_right_rotateB7v160006IPNS_16__tree_node_baseIPvEEEEvT_, symObjAddr: 0x2A50, symBinAddr: 0x10000FCF0, symSize: 0xC0 }
  - { offsetInCU: 0xB0D1, offset: 0x3F03C, size: 0x8, addend: 0x0, symName: __ZNSt3__1neB7v160006ERKNS_15__tree_iteratorINS_12__value_typeINS_12basic_stringIcNS_11char_traitsIcEENS_9allocatorIcEEEEiEEPNS_11__tree_nodeIS8_PvEElEESF_, symObjAddr: 0x31F0, symBinAddr: 0x100010240, symSize: 0x30 }
  - { offsetInCU: 0xB10E, offset: 0x3F079, size: 0x8, addend: 0x0, symName: __ZNSt3__1eqB7v160006ERKNS_15__tree_iteratorINS_12__value_typeINS_12basic_stringIcNS_11char_traitsIcEENS_9allocatorIcEEEEiEEPNS_11__tree_nodeIS8_PvEElEESF_, symObjAddr: 0x32C0, symBinAddr: 0x100010310, symSize: 0x30 }
  - { offsetInCU: 0xB14B, offset: 0x3F0B6, size: 0x8, addend: 0x0, symName: __ZNSt3__116__constrain_hashB7v160006Emm, symObjAddr: 0x3B80, symBinAddr: 0x100010B40, symSize: 0x80 }
  - { offsetInCU: 0xB185, offset: 0x3F0F0, size: 0x8, addend: 0x0, symName: __ZNSt3__116__is_hash_power2B7v160006Em, symObjAddr: 0x3EA0, symBinAddr: 0x100010E10, symSize: 0x40 }
  - { offsetInCU: 0xB1B1, offset: 0x3F11C, size: 0x8, addend: 0x0, symName: __ZNSt3__116__do_string_hashB7v160006IPKcEEmT_S3_, symObjAddr: 0x4070, symBinAddr: 0x100010FC0, symSize: 0x40 }
  - { offsetInCU: 0xB1F7, offset: 0x3F162, size: 0x8, addend: 0x0, symName: __ZNSt3__110__loadwordB7v160006ImEET_PKv, symObjAddr: 0x4960, symBinAddr: 0x1000118B0, symSize: 0x20 }
  - { offsetInCU: 0xB23A, offset: 0x3F1A5, size: 0x8, addend: 0x0, symName: __ZNSt3__14swapB7v160006ImEENS_9enable_ifIXaasr21is_move_constructibleIT_EE5valuesr18is_move_assignableIS2_EE5valueEvE4typeERS2_S5_, symObjAddr: 0x4B20, symBinAddr: 0x100011A70, symSize: 0x40 }
  - { offsetInCU: 0xB28B, offset: 0x3F1F6, size: 0x8, addend: 0x0, symName: __ZNSt3__110__loadwordB7v160006IjEET_PKv, symObjAddr: 0x4BB0, symBinAddr: 0x100011B00, symSize: 0x20 }
  - { offsetInCU: 0xB2CE, offset: 0x3F239, size: 0x8, addend: 0x0, symName: __ZNSt3__1eqB7v160006INS_9allocatorIcEEEEbRKNS_12basic_stringIcNS_11char_traitsIcEET_EES9_, symObjAddr: 0x4DF0, symBinAddr: 0x100011D40, symSize: 0x110 }
  - { offsetInCU: 0xB35F, offset: 0x3F2CA, size: 0x8, addend: 0x0, symName: __ZNSt3__116__next_hash_pow2B7v160006Em, symObjAddr: 0x5760, symBinAddr: 0x100012600, symSize: 0x60 }
  - { offsetInCU: 0xB38B, offset: 0x3F2F6, size: 0x8, addend: 0x0, symName: __ZNSt3__125__debug_db_invalidate_allB7v160006INS_12__hash_tableINS_12basic_stringIcNS_11char_traitsIcEENS_9allocatorIcEEEENS_4hashIS7_EENS_8equal_toIS7_EENS5_IS7_EEEEEEvPT_, symObjAddr: 0x57C0, symBinAddr: 0x100012660, symSize: 0x10 }
  - { offsetInCU: 0xB3BC, offset: 0x3F327, size: 0x8, addend: 0x0, symName: __ZNSt3__112__libcpp_clzB7v160006Em, symObjAddr: 0x5AB0, symBinAddr: 0x1000127A0, symSize: 0x20 }
  - { offsetInCU: 0xB3E8, offset: 0x3F353, size: 0x8, addend: 0x0, symName: __ZNSt3__119__debug_db_insert_cB7v160006INS_13unordered_setINS_12basic_stringIcNS_11char_traitsIcEENS_9allocatorIcEEEENS_4hashIS7_EENS_8equal_toIS7_EENS5_IS7_EEEEEEvPT_, symObjAddr: 0x5EC0, symBinAddr: 0x100012A70, symSize: 0x10 }
  - { offsetInCU: 0xB872, offset: 0x3F7DD, size: 0x8, addend: 0x0, symName: __ZNSt3__14swapB7v160006IPPNS_13unordered_setINS_12basic_stringIcNS_11char_traitsIcEENS_9allocatorIcEEEENS_4hashIS7_EENS_8equal_toIS7_EENS5_IS7_EEEEEENS_9enable_ifIXaasr21is_move_constructibleIT_EE5valuesr18is_move_assignableISH_EE5valueEvE4typeERSH_SK_, symObjAddr: 0x7AE0, symBinAddr: 0x100014240, symSize: 0x40 }
  - { offsetInCU: 0xB8C3, offset: 0x3F82E, size: 0x8, addend: 0x0, symName: __ZNSt3__14moveB7v160006IPPNS_13unordered_setINS_12basic_stringIcNS_11char_traitsIcEENS_9allocatorIcEEEENS_4hashIS7_EENS_8equal_toIS7_EENS5_IS7_EEEESF_EET0_T_SH_SG_, symObjAddr: 0x7BF0, symBinAddr: 0x100014300, symSize: 0x40 }
  - { offsetInCU: 0xB91D, offset: 0x3F888, size: 0x8, addend: 0x0, symName: __ZNSt3__16__moveB7v160006INS_17_ClassicAlgPolicyEPPNS_13unordered_setINS_12basic_stringIcNS_11char_traitsIcEENS_9allocatorIcEEEENS_4hashIS8_EENS_8equal_toIS8_EENS6_IS8_EEEESG_SG_EENS_4pairIT0_T2_EESI_T1_SJ_, symObjAddr: 0x7DA0, symBinAddr: 0x1000144A0, symSize: 0x40 }
  - { offsetInCU: 0xB989, offset: 0x3F8F4, size: 0x8, addend: 0x0, symName: __ZNSt3__123__dispatch_copy_or_moveB7v160006INS_17_ClassicAlgPolicyENS_11__move_loopIS1_EENS_14__move_trivialEPPNS_13unordered_setINS_12basic_stringIcNS_11char_traitsIcEENS_9allocatorIcEEEENS_4hashISB_EENS_8equal_toISB_EENS9_ISB_EEEESJ_SJ_EENS_4pairIT2_T4_EESL_T3_SM_, symObjAddr: 0x7DE0, symBinAddr: 0x1000144E0, symSize: 0x40 }
  - { offsetInCU: 0xBA07, offset: 0x3F972, size: 0x8, addend: 0x0, symName: __ZNSt3__121__unwrap_and_dispatchB7v160006INS_10__overloadINS_11__move_loopINS_17_ClassicAlgPolicyEEENS_14__move_trivialEEEPPNS_13unordered_setINS_12basic_stringIcNS_11char_traitsIcEENS_9allocatorIcEEEENS_4hashISD_EENS_8equal_toISD_EENSB_ISD_EEEESL_SL_Li0EEENS_4pairIT0_T2_EESN_T1_SO_, symObjAddr: 0x7E20, symBinAddr: 0x100014520, symSize: 0xB0 }
  - { offsetInCU: 0xBA96, offset: 0x3FA01, size: 0x8, addend: 0x0, symName: __ZNSt3__114__unwrap_rangeB7v160006IPPNS_13unordered_setINS_12basic_stringIcNS_11char_traitsIcEENS_9allocatorIcEEEENS_4hashIS7_EENS_8equal_toIS7_EENS5_IS7_EEEESF_EEDaT_T0_, symObjAddr: 0x7ED0, symBinAddr: 0x1000145D0, symSize: 0x40 }
  - { offsetInCU: 0xBC5D, offset: 0x3FBC8, size: 0x8, addend: 0x0, symName: __ZNSt3__113__unwrap_iterB7v160006IPPNS_13unordered_setINS_12basic_stringIcNS_11char_traitsIcEENS_9allocatorIcEEEENS_4hashIS7_EENS_8equal_toIS7_EENS5_IS7_EEEENS_18__unwrap_iter_implISF_Lb1EEELi0EEEDTclsrT0_8__unwrapclsr3stdE7declvalIT_EEEESJ_, symObjAddr: 0x7F50, symBinAddr: 0x100014650, symSize: 0x20 }
  - { offsetInCU: 0xBCA1, offset: 0x3FC0C, size: 0x8, addend: 0x0, symName: __ZNSt3__19make_pairB7v160006IPPNS_13unordered_setINS_12basic_stringIcNS_11char_traitsIcEENS_9allocatorIcEEEENS_4hashIS7_EENS_8equal_toIS7_EENS5_IS7_EEEESF_EENS_4pairINS_18__unwrap_ref_decayIT_E4typeENSH_IT0_E4typeEEEOSI_OSL_, symObjAddr: 0x7F70, symBinAddr: 0x100014670, symSize: 0x30 }
  - { offsetInCU: 0xBCF0, offset: 0x3FC5B, size: 0x8, addend: 0x0, symName: __ZNSt3__114__rewrap_rangeB7v160006IPPNS_13unordered_setINS_12basic_stringIcNS_11char_traitsIcEENS_9allocatorIcEEEENS_4hashIS7_EENS_8equal_toIS7_EENS5_IS7_EEEESF_SF_EET0_SG_T1_, symObjAddr: 0x7FA0, symBinAddr: 0x1000146A0, symSize: 0x30 }
  - { offsetInCU: 0xBD45, offset: 0x3FCB0, size: 0x8, addend: 0x0, symName: __ZNSt3__113__rewrap_iterB7v160006IPPNS_13unordered_setINS_12basic_stringIcNS_11char_traitsIcEENS_9allocatorIcEEEENS_4hashIS7_EENS_8equal_toIS7_EENS5_IS7_EEEESF_NS_18__unwrap_iter_implISF_Lb1EEEEET_SI_T0_, symObjAddr: 0x7FD0, symBinAddr: 0x1000146D0, symSize: 0x40 }
  - { offsetInCU: 0xBDEA, offset: 0x3FD55, size: 0x8, addend: 0x0, symName: __ZNSt3__119__copy_trivial_implB7v160006IPNS_13unordered_setINS_12basic_stringIcNS_11char_traitsIcEENS_9allocatorIcEEEENS_4hashIS7_EENS_8equal_toIS7_EENS5_IS7_EEEESE_EENS_4pairIPT_PT0_EESH_SH_SJ_, symObjAddr: 0x80C0, symBinAddr: 0x1000147C0, symSize: 0x70 }
  - { offsetInCU: 0xBE52, offset: 0x3FDBD, size: 0x8, addend: 0x0, symName: __ZNSt3__19make_pairB7v160006IRPPNS_13unordered_setINS_12basic_stringIcNS_11char_traitsIcEENS_9allocatorIcEEEENS_4hashIS7_EENS_8equal_toIS7_EENS5_IS7_EEEESF_EENS_4pairINS_18__unwrap_ref_decayIT_E4typeENSI_IT0_E4typeEEEOSJ_OSM_, symObjAddr: 0x8130, symBinAddr: 0x100014830, symSize: 0x30 }
  - { offsetInCU: 0xBEF4, offset: 0x3FE5F, size: 0x8, addend: 0x0, symName: __ZNSt3__18distanceB7v160006INS_13move_iteratorIPPNS_13unordered_setINS_12basic_stringIcNS_11char_traitsIcEENS_9allocatorIcEEEENS_4hashIS8_EENS_8equal_toIS8_EENS6_IS8_EEEEEEEENS_15iterator_traitsIT_E15difference_typeESJ_SJ_, symObjAddr: 0x8260, symBinAddr: 0x100014960, symSize: 0x40 }
  - { offsetInCU: 0xBF37, offset: 0x3FEA2, size: 0x8, addend: 0x0, symName: __ZNSt3__110__distanceB7v160006INS_13move_iteratorIPPNS_13unordered_setINS_12basic_stringIcNS_11char_traitsIcEENS_9allocatorIcEEEENS_4hashIS8_EENS_8equal_toIS8_EENS6_IS8_EEEEEEEENS_15iterator_traitsIT_E15difference_typeESJ_SJ_NS_26random_access_iterator_tagE, symObjAddr: 0x8390, symBinAddr: 0x100014A90, symSize: 0x30 }
  - { offsetInCU: 0xBF84, offset: 0x3FEEF, size: 0x8, addend: 0x0, symName: __ZNSt3__1miB7v160006IPPNS_13unordered_setINS_12basic_stringIcNS_11char_traitsIcEENS_9allocatorIcEEEENS_4hashIS7_EENS_8equal_toIS7_EENS5_IS7_EEEESF_EEDTmicldtfp_4baseEcldtfp0_4baseEERKNS_13move_iteratorIT_EERKNSH_IT0_EE, symObjAddr: 0x83C0, symBinAddr: 0x100014AC0, symSize: 0x40 }
  - { offsetInCU: 0xBFFA, offset: 0x3FF65, size: 0x8, addend: 0x0, symName: __ZNSt3__112construct_atB7v160006IPNS_13unordered_setINS_12basic_stringIcNS_11char_traitsIcEENS_9allocatorIcEEEENS_4hashIS7_EENS_8equal_toIS7_EENS5_IS7_EEEEJSE_EPSE_EEPT_SH_DpOT0_, symObjAddr: 0x8450, symBinAddr: 0x100014B50, symSize: 0x30 }
  - { offsetInCU: 0xC06C, offset: 0x3FFD7, size: 0x8, addend: 0x0, symName: __ZNSt3__112construct_atB7v160006IPNS_13unordered_setINS_12basic_stringIcNS_11char_traitsIcEENS_9allocatorIcEEEENS_4hashIS7_EENS_8equal_toIS7_EENS5_IS7_EEEEJRKSE_EPSE_EEPT_SJ_DpOT0_, symObjAddr: 0x8520, symBinAddr: 0x100014C20, symSize: 0x30 }
  - { offsetInCU: 0xC0DE, offset: 0x40049, size: 0x8, addend: 0x0, symName: __ZNSt3__113move_backwardB7v160006IPPNS_13unordered_setINS_12basic_stringIcNS_11char_traitsIcEENS_9allocatorIcEEEENS_4hashIS7_EENS_8equal_toIS7_EENS5_IS7_EEEESF_EET0_T_SH_SG_, symObjAddr: 0x8620, symBinAddr: 0x100014CD0, symSize: 0x40 }
  - { offsetInCU: 0xC138, offset: 0x400A3, size: 0x8, addend: 0x0, symName: __ZNSt3__115__move_backwardB7v160006INS_17_ClassicAlgPolicyEPPNS_13unordered_setINS_12basic_stringIcNS_11char_traitsIcEENS_9allocatorIcEEEENS_4hashIS8_EENS_8equal_toIS8_EENS6_IS8_EEEESG_SG_EENS_4pairIT0_T2_EESI_T1_SJ_, symObjAddr: 0x8660, symBinAddr: 0x100014D10, symSize: 0x40 }
  - { offsetInCU: 0xC1A4, offset: 0x4010F, size: 0x8, addend: 0x0, symName: __ZNSt3__123__dispatch_copy_or_moveB7v160006INS_17_ClassicAlgPolicyENS_20__move_backward_loopIS1_EENS_23__move_backward_trivialEPPNS_13unordered_setINS_12basic_stringIcNS_11char_traitsIcEENS_9allocatorIcEEEENS_4hashISB_EENS_8equal_toISB_EENS9_ISB_EEEESJ_SJ_EENS_4pairIT2_T4_EESL_T3_SM_, symObjAddr: 0x86A0, symBinAddr: 0x100014D50, symSize: 0x40 }
  - { offsetInCU: 0xC222, offset: 0x4018D, size: 0x8, addend: 0x0, symName: __ZNSt3__121__unwrap_and_dispatchB7v160006INS_10__overloadINS_20__move_backward_loopINS_17_ClassicAlgPolicyEEENS_23__move_backward_trivialEEEPPNS_13unordered_setINS_12basic_stringIcNS_11char_traitsIcEENS_9allocatorIcEEEENS_4hashISD_EENS_8equal_toISD_EENSB_ISD_EEEESL_SL_Li0EEENS_4pairIT0_T2_EESN_T1_SO_, symObjAddr: 0x86E0, symBinAddr: 0x100014D90, symSize: 0xB0 }
  - { offsetInCU: 0xC2F7, offset: 0x40262, size: 0x8, addend: 0x0, symName: __ZNSt3__128__copy_backward_trivial_implB7v160006IPNS_13unordered_setINS_12basic_stringIcNS_11char_traitsIcEENS_9allocatorIcEEEENS_4hashIS7_EENS_8equal_toIS7_EENS5_IS7_EEEESE_EENS_4pairIPT_PT0_EESH_SH_SJ_, symObjAddr: 0x87D0, symBinAddr: 0x100014E80, symSize: 0x80 }
  - { offsetInCU: 0xC35F, offset: 0x402CA, size: 0x8, addend: 0x0, symName: __ZNSt3__19make_pairB7v160006IRPPNS_13unordered_setINS_12basic_stringIcNS_11char_traitsIcEENS_9allocatorIcEEEENS_4hashIS7_EENS_8equal_toIS7_EENS5_IS7_EEEESG_EENS_4pairINS_18__unwrap_ref_decayIT_E4typeENSI_IT0_E4typeEEEOSJ_OSM_, symObjAddr: 0x8850, symBinAddr: 0x100014F00, symSize: 0x30 }
  - { offsetInCU: 0xC3AE, offset: 0x40319, size: 0x8, addend: 0x0, symName: __ZNSt3__119__allocate_at_leastB7v160006INS_9allocatorIPNS_13unordered_setINS_12basic_stringIcNS_11char_traitsIcEENS1_IcEEEENS_4hashIS7_EENS_8equal_toIS7_EENS1_IS7_EEEEEEEENS_19__allocation_resultINS_16allocator_traitsIT_E7pointerEEERSI_m, symObjAddr: 0x8A10, symBinAddr: 0x100015090, symSize: 0x40 }
  - { offsetInCU: 0xC418, offset: 0x40383, size: 0x8, addend: 0x0, symName: __ZNSt3__112construct_atB7v160006INS_13unordered_setINS_12basic_stringIcNS_11char_traitsIcEENS_9allocatorIcEEEENS_4hashIS7_EENS_8equal_toIS7_EENS5_IS7_EEEEJRKSD_EPSD_EEPT_SI_DpOT0_, symObjAddr: 0x9100, symBinAddr: 0x100015620, symSize: 0x40 }
  - { offsetInCU: 0xC4A8, offset: 0x40413, size: 0x8, addend: 0x0, symName: __ZNSt3__1eqB7v160006ERKNS_21__hash_const_iteratorIPNS_11__hash_nodeINS_12basic_stringIcNS_11char_traitsIcEENS_9allocatorIcEEEEPvEEEESD_, symObjAddr: 0x9AE0, symBinAddr: 0x100015F60, symSize: 0x30 }
  - { offsetInCU: 0xC4E5, offset: 0x40450, size: 0x8, addend: 0x0, symName: __ZNSt3__113__tree_removeB7v160006IPNS_16__tree_node_baseIPvEEEEvT_S5_, symObjAddr: 0x9CE0, symBinAddr: 0x100016160, symSize: 0x5E0 }
  - { offsetInCU: 0xC563, offset: 0x404CE, size: 0x8, addend: 0x0, symName: __ZNSt3__116__tree_next_iterB7v160006IPNS_15__tree_end_nodeIPNS_16__tree_node_baseIPvEEEES5_EET_T0_, symObjAddr: 0xA2C0, symBinAddr: 0x100016740, symSize: 0x80 }
  - { offsetInCU: 0xC5A1, offset: 0x4050C, size: 0x8, addend: 0x0, symName: __ZNSt3__110__tree_minB7v160006IPNS_16__tree_node_baseIPvEEEET_S5_, symObjAddr: 0xA340, symBinAddr: 0x1000167C0, symSize: 0x30 }
  - { offsetInCU: 0xC5D6, offset: 0x40541, size: 0x8, addend: 0x0, symName: __ZNSt3__111__tree_nextB7v160006IPNS_16__tree_node_baseIPvEEEET_S5_, symObjAddr: 0xA370, symBinAddr: 0x1000167F0, symSize: 0x80 }
  - { offsetInCU: 0xC60B, offset: 0x40576, size: 0x8, addend: 0x0, symName: __ZNSt3__112__to_addressB7v160006INS_13unordered_setINS_12basic_stringIcNS_11char_traitsIcEENS_9allocatorIcEEEENS_4hashIS7_EENS_8equal_toIS7_EENS5_IS7_EEEEEEPT_SF_, symObjAddr: 0xA4E0, symBinAddr: 0x100016940, symSize: 0x10 }
  - { offsetInCU: 0xF09D, offset: 0x43008, size: 0x8, addend: 0x0, symName: __ZN9Variables18get_variable_valueERKNSt3__112basic_stringIcNS0_11char_traitsIcEENS0_9allocatorIcEEEE, symObjAddr: 0x0, symBinAddr: 0x10000DAD0, symSize: 0x30 }
  - { offsetInCU: 0xF0D2, offset: 0x4303D, size: 0x8, addend: 0x0, symName: __ZNSt3__13mapINS_12basic_stringIcNS_11char_traitsIcEENS_9allocatorIcEEEEiNS_4lessIS6_EENS4_INS_4pairIKS6_iEEEEEixERSA_, symObjAddr: 0x30, symBinAddr: 0x10000DB00, symSize: 0x70 }
  - { offsetInCU: 0xF108, offset: 0x43073, size: 0x8, addend: 0x0, symName: __ZN9Variables43assign_variable_and_initialize_if_necessaryERKNSt3__112basic_stringIcNS0_11char_traitsIcEENS0_9allocatorIcEEEEi, symObjAddr: 0xA0, symBinAddr: 0x10000DB70, symSize: 0x90 }
  - { offsetInCU: 0xF159, offset: 0x430C4, size: 0x8, addend: 0x0, symName: __ZNSt3__13mapINS_12basic_stringIcNS_11char_traitsIcEENS_9allocatorIcEEEEiNS_4lessIS6_EENS4_INS_4pairIKS6_iEEEEE4findB7v160006ERSA_, symObjAddr: 0x160, symBinAddr: 0x10000DC30, symSize: 0x40 }
  - { offsetInCU: 0xF18C, offset: 0x430F7, size: 0x8, addend: 0x0, symName: __ZNSt3__13mapINS_12basic_stringIcNS_11char_traitsIcEENS_9allocatorIcEEEEiNS_4lessIS6_EENS4_INS_4pairIKS6_iEEEEE3endB7v160006Ev, symObjAddr: 0x1A0, symBinAddr: 0x10000DC70, symSize: 0x30 }
  - { offsetInCU: 0xF1B0, offset: 0x4311B, size: 0x8, addend: 0x0, symName: __ZNSt3__15stackINS_13unordered_setINS_12basic_stringIcNS_11char_traitsIcEENS_9allocatorIcEEEENS_4hashIS7_EENS_8equal_toIS7_EENS5_IS7_EEEENS_5dequeISD_NS5_ISD_EEEEE3topB7v160006Ev, symObjAddr: 0x1D0, symBinAddr: 0x10000DCA0, symSize: 0x20 }
  - { offsetInCU: 0xF1D4, offset: 0x4313F, size: 0x8, addend: 0x0, symName: __ZNSt3__113unordered_setINS_12basic_stringIcNS_11char_traitsIcEENS_9allocatorIcEEEENS_4hashIS6_EENS_8equal_toIS6_EENS4_IS6_EEE6insertB7v160006ERKS6_, symObjAddr: 0x1F0, symBinAddr: 0x10000DCC0, symSize: 0x40 }
  - { offsetInCU: 0xF207, offset: 0x43172, size: 0x8, addend: 0x0, symName: __ZN9Variables15enter_new_scopeEv, symObjAddr: 0x230, symBinAddr: 0x10000DD00, symSize: 0x70 }
  - { offsetInCU: 0xF23C, offset: 0x431A7, size: 0x8, addend: 0x0, symName: __ZNSt3__113unordered_setINS_12basic_stringIcNS_11char_traitsIcEENS_9allocatorIcEEEENS_4hashIS6_EENS_8equal_toIS6_EENS4_IS6_EEEC1B7v160006Ev, symObjAddr: 0x2A0, symBinAddr: 0x10000DD70, symSize: 0x20 }
  - { offsetInCU: 0xF264, offset: 0x431CF, size: 0x8, addend: 0x0, symName: __ZNSt3__15stackINS_13unordered_setINS_12basic_stringIcNS_11char_traitsIcEENS_9allocatorIcEEEENS_4hashIS7_EENS_8equal_toIS7_EENS5_IS7_EEEENS_5dequeISD_NS5_ISD_EEEEE4pushB7v160006ERKSD_, symObjAddr: 0x2C0, symBinAddr: 0x10000DD90, symSize: 0x30 }
  - { offsetInCU: 0xF296, offset: 0x43201, size: 0x8, addend: 0x0, symName: __ZN9Variables18exit_current_scopeEv, symObjAddr: 0x310, symBinAddr: 0x10000DDC0, symSize: 0x180 }
  - { offsetInCU: 0xF317, offset: 0x43282, size: 0x8, addend: 0x0, symName: __ZNSt3__113unordered_setINS_12basic_stringIcNS_11char_traitsIcEENS_9allocatorIcEEEENS_4hashIS6_EENS_8equal_toIS6_EENS4_IS6_EEEC1ERKSC_, symObjAddr: 0x490, symBinAddr: 0x10000DF40, symSize: 0x30 }
  - { offsetInCU: 0xF350, offset: 0x432BB, size: 0x8, addend: 0x0, symName: __ZNSt3__113unordered_setINS_12basic_stringIcNS_11char_traitsIcEENS_9allocatorIcEEEENS_4hashIS6_EENS_8equal_toIS6_EENS4_IS6_EEE5beginB7v160006Ev, symObjAddr: 0x4C0, symBinAddr: 0x10000DF70, symSize: 0x30 }
  - { offsetInCU: 0xF374, offset: 0x432DF, size: 0x8, addend: 0x0, symName: __ZNSt3__113unordered_setINS_12basic_stringIcNS_11char_traitsIcEENS_9allocatorIcEEEENS_4hashIS6_EENS_8equal_toIS6_EENS4_IS6_EEE3endB7v160006Ev, symObjAddr: 0x4F0, symBinAddr: 0x10000DFA0, symSize: 0x30 }
  - { offsetInCU: 0xF398, offset: 0x43303, size: 0x8, addend: 0x0, symName: __ZNKSt3__121__hash_const_iteratorIPNS_11__hash_nodeINS_12basic_stringIcNS_11char_traitsIcEENS_9allocatorIcEEEEPvEEEdeB7v160006Ev, symObjAddr: 0x550, symBinAddr: 0x10000E000, symSize: 0x30 }
  - { offsetInCU: 0xF3BC, offset: 0x43327, size: 0x8, addend: 0x0, symName: __ZNSt3__13mapINS_12basic_stringIcNS_11char_traitsIcEENS_9allocatorIcEEEEiNS_4lessIS6_EENS4_INS_4pairIKS6_iEEEEE5eraseB7v160006ENS_14__map_iteratorINS_15__tree_iteratorINS_12__value_typeIS6_iEEPNS_11__tree_nodeISH_PvEElEEEE, symObjAddr: 0x580, symBinAddr: 0x10000E030, symSize: 0x60 }
  - { offsetInCU: 0xF3EF, offset: 0x4335A, size: 0x8, addend: 0x0, symName: __ZNSt3__121__hash_const_iteratorIPNS_11__hash_nodeINS_12basic_stringIcNS_11char_traitsIcEENS_9allocatorIcEEEEPvEEEppB7v160006Ev, symObjAddr: 0x5E0, symBinAddr: 0x10000E090, symSize: 0x20 }
  - { offsetInCU: 0xF413, offset: 0x4337E, size: 0x8, addend: 0x0, symName: __ZNSt3__15stackINS_13unordered_setINS_12basic_stringIcNS_11char_traitsIcEENS_9allocatorIcEEEENS_4hashIS7_EENS_8equal_toIS7_EENS5_IS7_EEEENS_5dequeISD_NS5_ISD_EEEEE3popB7v160006Ev, symObjAddr: 0x600, symBinAddr: 0x10000E0B0, symSize: 0x20 }
  - { offsetInCU: 0xF5E2, offset: 0x4354D, size: 0x8, addend: 0x0, symName: __ZN21StatementSequenceNode8evaluateEv, symObjAddr: 0x620, symBinAddr: 0x10000E0D0, symSize: 0xE0 }
  - { offsetInCU: 0xF685, offset: 0x435F0, size: 0x8, addend: 0x0, symName: __ZN14SyntaxTreeNode16EvaluationResultC1Ev, symObjAddr: 0x700, symBinAddr: 0x10000E1B0, symSize: 0x20 }
  - { offsetInCU: 0xF6AD, offset: 0x43618, size: 0x8, addend: 0x0, symName: __ZNSt3__16vectorIP14SyntaxTreeNodeNS_9allocatorIS2_EEE5beginB7v160006Ev, symObjAddr: 0x720, symBinAddr: 0x10000E1D0, symSize: 0x30 }
  - { offsetInCU: 0xF6D4, offset: 0x4363F, size: 0x8, addend: 0x0, symName: __ZNSt3__16vectorIP14SyntaxTreeNodeNS_9allocatorIS2_EEE3endB7v160006Ev, symObjAddr: 0x750, symBinAddr: 0x10000E200, symSize: 0x30 }
  - { offsetInCU: 0xF6FB, offset: 0x43666, size: 0x8, addend: 0x0, symName: __ZNKSt3__111__wrap_iterIPP14SyntaxTreeNodeEdeB7v160006Ev, symObjAddr: 0x7B0, symBinAddr: 0x10000E260, symSize: 0x20 }
  - { offsetInCU: 0xF71F, offset: 0x4368A, size: 0x8, addend: 0x0, symName: __ZNSt3__111__wrap_iterIPP14SyntaxTreeNodeEppB7v160006Ev, symObjAddr: 0x7D0, symBinAddr: 0x10000E280, symSize: 0x20 }
  - { offsetInCU: 0xF7D5, offset: 0x43740, size: 0x8, addend: 0x0, symName: __ZN11OperandNode8evaluateEv, symObjAddr: 0x7F0, symBinAddr: 0x10000E2A0, symSize: 0x80 }
  - { offsetInCU: 0xF863, offset: 0x437CE, size: 0x8, addend: 0x0, symName: __ZN10ReturnNode8evaluateEv, symObjAddr: 0x870, symBinAddr: 0x10000E320, symSize: 0x70 }
  - { offsetInCU: 0xF902, offset: 0x4386D, size: 0x8, addend: 0x0, symName: __ZN14AssignmentNode8evaluateEv, symObjAddr: 0x8E0, symBinAddr: 0x10000E390, symSize: 0x80 }
  - { offsetInCU: 0xF9C0, offset: 0x4392B, size: 0x8, addend: 0x0, symName: __ZN19BinaryOperationNode8evaluateEv, symObjAddr: 0x960, symBinAddr: 0x10000E410, symSize: 0x1A0 }
  - { offsetInCU: 0xFA9B, offset: 0x43A06, size: 0x8, addend: 0x0, symName: __ZN10IfElseNode8evaluateEv, symObjAddr: 0xB00, symBinAddr: 0x10000E5B0, symSize: 0xC0 }
  - { offsetInCU: 0xFB3A, offset: 0x43AA5, size: 0x8, addend: 0x0, symName: __ZN8LoopNode8evaluateEv, symObjAddr: 0xBC0, symBinAddr: 0x10000E670, symSize: 0xE0 }
  - { offsetInCU: 0xFC20, offset: 0x43B8B, size: 0x8, addend: 0x0, symName: __ZN12FunctionNode8evaluateEv, symObjAddr: 0xCA0, symBinAddr: 0x10000E750, symSize: 0x150 }
  - { offsetInCU: 0xFCBE, offset: 0x43C29, size: 0x8, addend: 0x0, symName: __ZNSt3__13mapINS_12basic_stringIcNS_11char_traitsIcEENS_9allocatorIcEEEEiNS_4lessIS6_EENS4_INS_4pairIKS6_iEEEEE5beginB7v160006Ev, symObjAddr: 0xDF0, symBinAddr: 0x10000E8A0, symSize: 0x30 }
  - { offsetInCU: 0xFCE2, offset: 0x43C4D, size: 0x8, addend: 0x0, symName: __ZNKSt3__114__map_iteratorINS_15__tree_iteratorINS_12__value_typeINS_12basic_stringIcNS_11char_traitsIcEENS_9allocatorIcEEEEiEEPNS_11__tree_nodeIS9_PvEElEEEdeB7v160006Ev, symObjAddr: 0xE50, symBinAddr: 0x10000E900, symSize: 0x30 }
  - { offsetInCU: 0xFD1F, offset: 0x43C8A, size: 0x8, addend: 0x0, symName: __ZNSt3__14pairINS_12basic_stringIcNS_11char_traitsIcEENS_9allocatorIcEEEEiEC1B7v160006IRNS0_IKS6_iEELPv0EEEOT_, symObjAddr: 0xE80, symBinAddr: 0x10000E930, symSize: 0x30 }
  - { offsetInCU: 0xFD66, offset: 0x43CD1, size: 0x8, addend: 0x0, symName: __ZNSt3__14pairINS_12basic_stringIcNS_11char_traitsIcEENS_9allocatorIcEEEEiED1Ev, symObjAddr: 0xEB0, symBinAddr: 0x10000E960, symSize: 0x20 }
  - { offsetInCU: 0xFD90, offset: 0x43CFB, size: 0x8, addend: 0x0, symName: __ZNSt3__114__map_iteratorINS_15__tree_iteratorINS_12__value_typeINS_12basic_stringIcNS_11char_traitsIcEENS_9allocatorIcEEEEiEEPNS_11__tree_nodeIS9_PvEElEEEppB7v160006Ev, symObjAddr: 0xED0, symBinAddr: 0x10000E980, symSize: 0x30 }
  - { offsetInCU: 0xFDB4, offset: 0x43D1F, size: 0x8, addend: 0x0, symName: __ZN14SyntaxTreeNode16EvaluationResultC2Ev, symObjAddr: 0xF00, symBinAddr: 0x10000E9B0, symSize: 0x20 }
  - { offsetInCU: 0xFDDC, offset: 0x43D47, size: 0x8, addend: 0x0, symName: __ZNSt3__16vectorIP14SyntaxTreeNodeNS_9allocatorIS2_EEE11__make_iterB7v160006EPS2_, symObjAddr: 0xF20, symBinAddr: 0x10000E9D0, symSize: 0x30 }
  - { offsetInCU: 0xFE0F, offset: 0x43D7A, size: 0x8, addend: 0x0, symName: __ZNSt3__111__wrap_iterIPP14SyntaxTreeNodeEC1B7v160006EPKvS3_, symObjAddr: 0xF50, symBinAddr: 0x10000EA00, symSize: 0x30 }
  - { offsetInCU: 0xFE53, offset: 0x43DBE, size: 0x8, addend: 0x0, symName: __ZNSt3__111__wrap_iterIPP14SyntaxTreeNodeEC2B7v160006EPKvS3_, symObjAddr: 0xF80, symBinAddr: 0x10000EA30, symSize: 0x20 }
  - { offsetInCU: 0xFE97, offset: 0x43E02, size: 0x8, addend: 0x0, symName: __ZNKSt3__111__wrap_iterIPP14SyntaxTreeNodeE4baseB7v160006Ev, symObjAddr: 0xFE0, symBinAddr: 0x10000EA90, symSize: 0x20 }
  - { offsetInCU: 0xFEBB, offset: 0x43E26, size: 0x8, addend: 0x0, symName: __ZNSt3__14pairINS_12basic_stringIcNS_11char_traitsIcEENS_9allocatorIcEEEEiEC2B7v160006IRNS0_IKS6_iEELPv0EEEOT_, symObjAddr: 0x1000, symBinAddr: 0x10000EAB0, symSize: 0x50 }
  - { offsetInCU: 0xFF02, offset: 0x43E6D, size: 0x8, addend: 0x0, symName: __ZNSt3__110__get_pairILm0EE3getB7v160006IKNS_12basic_stringIcNS_11char_traitsIcEENS_9allocatorIcEEEEiEERT_RNS_4pairISA_T0_EE, symObjAddr: 0x1090, symBinAddr: 0x10000EB40, symSize: 0x10 }
  - { offsetInCU: 0xFF3C, offset: 0x43EA7, size: 0x8, addend: 0x0, symName: __ZNSt3__110__get_pairILm1EE3getB7v160006IKNS_12basic_stringIcNS_11char_traitsIcEENS_9allocatorIcEEEEiEERT0_RNS_4pairIT_SA_EE, symObjAddr: 0x10A0, symBinAddr: 0x10000EB50, symSize: 0x20 }
  - { offsetInCU: 0xFF71, offset: 0x43EDC, size: 0x8, addend: 0x0, symName: __ZNSt3__14pairINS_12basic_stringIcNS_11char_traitsIcEENS_9allocatorIcEEEEiED2Ev, symObjAddr: 0x10C0, symBinAddr: 0x10000EB70, symSize: 0x20 }
  - { offsetInCU: 0xFFAF, offset: 0x43F1A, size: 0x8, addend: 0x0, symName: __ZNSt3__16__treeINS_12__value_typeINS_12basic_stringIcNS_11char_traitsIcEENS_9allocatorIcEEEEiEENS_19__map_value_compareIS7_S8_NS_4lessIS7_EELb1EEENS5_IS8_EEE25__emplace_unique_key_argsIS7_JRKNS_21piecewise_construct_tENS_5tupleIJRKS7_EEENSJ_IJEEEEEENS_4pairINS_15__tree_iteratorIS8_PNS_11__tree_nodeIS8_PvEElEEbEERKT_DpOT0_, symObjAddr: 0x10E0, symBinAddr: 0x10000EB90, symSize: 0x100 }
  - { offsetInCU: 0x1008D, offset: 0x43FF8, size: 0x8, addend: 0x0, symName: __ZNKSt3__115__tree_iteratorINS_12__value_typeINS_12basic_stringIcNS_11char_traitsIcEENS_9allocatorIcEEEEiEEPNS_11__tree_nodeIS8_PvEElEptB7v160006Ev, symObjAddr: 0x1220, symBinAddr: 0x10000ECD0, symSize: 0x30 }
  - { offsetInCU: 0x100B1, offset: 0x4401C, size: 0x8, addend: 0x0, symName: __ZNSt3__16__treeINS_12__value_typeINS_12basic_stringIcNS_11char_traitsIcEENS_9allocatorIcEEEEiEENS_19__map_value_compareIS7_S8_NS_4lessIS7_EELb1EEENS5_IS8_EEE12__find_equalIS7_EERPNS_16__tree_node_baseIPvEERPNS_15__tree_end_nodeISJ_EERKT_, symObjAddr: 0x1270, symBinAddr: 0x10000ED00, symSize: 0x180 }
  - { offsetInCU: 0x1011D, offset: 0x44088, size: 0x8, addend: 0x0, symName: __ZNSt3__16__treeINS_12__value_typeINS_12basic_stringIcNS_11char_traitsIcEENS_9allocatorIcEEEEiEENS_19__map_value_compareIS7_S8_NS_4lessIS7_EELb1EEENS5_IS8_EEE16__construct_nodeIJRKNS_21piecewise_construct_tENS_5tupleIJRKS7_EEENSJ_IJEEEEEENS_10unique_ptrINS_11__tree_nodeIS8_PvEENS_22__tree_node_destructorINS5_ISR_EEEEEEDpOT_, symObjAddr: 0x13F0, symBinAddr: 0x10000EE80, symSize: 0x120 }
  - { offsetInCU: 0x101A5, offset: 0x44110, size: 0x8, addend: 0x0, symName: __ZNSt3__16__treeINS_12__value_typeINS_12basic_stringIcNS_11char_traitsIcEENS_9allocatorIcEEEEiEENS_19__map_value_compareIS7_S8_NS_4lessIS7_EELb1EEENS5_IS8_EEE16__insert_node_atEPNS_15__tree_end_nodeIPNS_16__tree_node_baseIPvEEEERSJ_SJ_, symObjAddr: 0x1510, symBinAddr: 0x10000EFA0, symSize: 0xC0 }
  - { offsetInCU: 0x101F9, offset: 0x44164, size: 0x8, addend: 0x0, symName: __ZNKSt3__110unique_ptrINS_11__tree_nodeINS_12__value_typeINS_12basic_stringIcNS_11char_traitsIcEENS_9allocatorIcEEEEiEEPvEENS_22__tree_node_destructorINS6_ISB_EEEEE3getB7v160006Ev, symObjAddr: 0x15D0, symBinAddr: 0x10000F060, symSize: 0x20 }
  - { offsetInCU: 0x1021D, offset: 0x44188, size: 0x8, addend: 0x0, symName: __ZNSt3__110unique_ptrINS_11__tree_nodeINS_12__value_typeINS_12basic_stringIcNS_11char_traitsIcEENS_9allocatorIcEEEEiEEPvEENS_22__tree_node_destructorINS6_ISB_EEEEE7releaseB7v160006Ev, symObjAddr: 0x15F0, symBinAddr: 0x10000F080, symSize: 0x40 }
  - { offsetInCU: 0x10250, offset: 0x441BB, size: 0x8, addend: 0x0, symName: __ZNSt3__110unique_ptrINS_11__tree_nodeINS_12__value_typeINS_12basic_stringIcNS_11char_traitsIcEENS_9allocatorIcEEEEiEEPvEENS_22__tree_node_destructorINS6_ISB_EEEEED1B7v160006Ev, symObjAddr: 0x1630, symBinAddr: 0x10000F0C0, symSize: 0x20 }
  - { offsetInCU: 0x10278, offset: 0x441E3, size: 0x8, addend: 0x0, symName: __ZNSt3__115__tree_iteratorINS_12__value_typeINS_12basic_stringIcNS_11char_traitsIcEENS_9allocatorIcEEEEiEEPNS_11__tree_nodeIS8_PvEElEC1B7v160006ESC_, symObjAddr: 0x1650, symBinAddr: 0x10000F0E0, symSize: 0x30 }
  - { offsetInCU: 0x102B9, offset: 0x44224, size: 0x8, addend: 0x0, symName: __ZNSt3__14pairINS_15__tree_iteratorINS_12__value_typeINS_12basic_stringIcNS_11char_traitsIcEENS_9allocatorIcEEEEiEEPNS_11__tree_nodeIS9_PvEElEEbEC1B7v160006ISE_RbLSB_0EEEOT_OT0_, symObjAddr: 0x1680, symBinAddr: 0x10000F110, symSize: 0x30 }
  - { offsetInCU: 0x10316, offset: 0x44281, size: 0x8, addend: 0x0, symName: __ZNKSt3__16__treeINS_12__value_typeINS_12basic_stringIcNS_11char_traitsIcEENS_9allocatorIcEEEEiEENS_19__map_value_compareIS7_S8_NS_4lessIS7_EELb1EEENS5_IS8_EEE10__root_ptrEv, symObjAddr: 0x16D0, symBinAddr: 0x10000F140, symSize: 0x20 }
  - { offsetInCU: 0x1033A, offset: 0x442A5, size: 0x8, addend: 0x0, symName: __ZNSt3__16__treeINS_12__value_typeINS_12basic_stringIcNS_11char_traitsIcEENS_9allocatorIcEEEEiEENS_19__map_value_compareIS7_S8_NS_4lessIS7_EELb1EEENS5_IS8_EEE10value_compB7v160006Ev, symObjAddr: 0x16F0, symBinAddr: 0x10000F160, symSize: 0x20 }
  - { offsetInCU: 0x1035E, offset: 0x442C9, size: 0x8, addend: 0x0, symName: __ZNKSt3__119__map_value_compareINS_12basic_stringIcNS_11char_traitsIcEENS_9allocatorIcEEEENS_12__value_typeIS6_iEENS_4lessIS6_EELb1EEclB7v160006ERKS6_RKS8_, symObjAddr: 0x1710, symBinAddr: 0x10000F180, symSize: 0x50 }
  - { offsetInCU: 0x103A0, offset: 0x4430B, size: 0x8, addend: 0x0, symName: __ZNKSt3__119__map_value_compareINS_12basic_stringIcNS_11char_traitsIcEENS_9allocatorIcEEEENS_12__value_typeIS6_iEENS_4lessIS6_EELb1EEclB7v160006ERKS8_RKS6_, symObjAddr: 0x1760, symBinAddr: 0x10000F1D0, symSize: 0x40 }
  - { offsetInCU: 0x103E2, offset: 0x4434D, size: 0x8, addend: 0x0, symName: __ZNSt3__117__compressed_pairImNS_19__map_value_compareINS_12basic_stringIcNS_11char_traitsIcEENS_9allocatorIcEEEENS_12__value_typeIS7_iEENS_4lessIS7_EELb1EEEE6secondB7v160006Ev, symObjAddr: 0x1840, symBinAddr: 0x10000F210, symSize: 0x20 }
  - { offsetInCU: 0x10406, offset: 0x44371, size: 0x8, addend: 0x0, symName: __ZNSt3__122__compressed_pair_elemINS_19__map_value_compareINS_12basic_stringIcNS_11char_traitsIcEENS_9allocatorIcEEEENS_12__value_typeIS7_iEENS_4lessIS7_EELb1EEELi1ELb1EE5__getB7v160006Ev, symObjAddr: 0x1860, symBinAddr: 0x10000F230, symSize: 0x10 }
  - { offsetInCU: 0x1042A, offset: 0x44395, size: 0x8, addend: 0x0, symName: __ZNKSt3__14lessINS_12basic_stringIcNS_11char_traitsIcEENS_9allocatorIcEEEEEclB7v160006ERKS6_S9_, symObjAddr: 0x1870, symBinAddr: 0x10000F240, symSize: 0x50 }
  - { offsetInCU: 0x1046C, offset: 0x443D7, size: 0x8, addend: 0x0, symName: __ZNKSt3__112__value_typeINS_12basic_stringIcNS_11char_traitsIcEENS_9allocatorIcEEEEiE11__get_valueB7v160006Ev, symObjAddr: 0x18C0, symBinAddr: 0x10000F290, symSize: 0x20 }
  - { offsetInCU: 0x1049F, offset: 0x4440A, size: 0x8, addend: 0x0, symName: __ZNSt3__120_CmpUnspecifiedParamC1B7v160006EMS0_i, symObjAddr: 0x1960, symBinAddr: 0x10000F330, symSize: 0x30 }
  - { offsetInCU: 0x104D1, offset: 0x4443C, size: 0x8, addend: 0x0, symName: __ZNSt3__120_CmpUnspecifiedParamC2B7v160006EMS0_i, symObjAddr: 0x1F70, symBinAddr: 0x10000F3F0, symSize: 0x10 }
  - { offsetInCU: 0x10503, offset: 0x4446E, size: 0x8, addend: 0x0, symName: __ZNSt3__116allocator_traitsINS_9allocatorINS_11__tree_nodeINS_12__value_typeINS_12basic_stringIcNS_11char_traitsIcEENS1_IcEEEEiEEPvEEEEE8allocateB7v160006ERSC_m, symObjAddr: 0x2000, symBinAddr: 0x10000F430, symSize: 0x30 }
  - { offsetInCU: 0x10535, offset: 0x444A0, size: 0x8, addend: 0x0, symName: __ZNSt3__122__tree_node_destructorINS_9allocatorINS_11__tree_nodeINS_12__value_typeINS_12basic_stringIcNS_11char_traitsIcEENS1_IcEEEEiEEPvEEEEEC1B7v160006ERSC_b, symObjAddr: 0x2030, symBinAddr: 0x10000F460, symSize: 0x40 }
  - { offsetInCU: 0x10580, offset: 0x444EB, size: 0x8, addend: 0x0, symName: __ZNSt3__110unique_ptrINS_11__tree_nodeINS_12__value_typeINS_12basic_stringIcNS_11char_traitsIcEENS_9allocatorIcEEEEiEEPvEENS_22__tree_node_destructorINS6_ISB_EEEEEC1B7v160006ILb1EvEEPSB_NS_16__dependent_typeINS_27__unique_ptr_deleter_sfinaeISE_EEXT_EE20__good_rval_ref_typeE, symObjAddr: 0x2070, symBinAddr: 0x10000F4A0, symSize: 0x30 }
  - { offsetInCU: 0x105CF, offset: 0x4453A, size: 0x8, addend: 0x0, symName: __ZNSt3__116allocator_traitsINS_9allocatorINS_11__tree_nodeINS_12__value_typeINS_12basic_stringIcNS_11char_traitsIcEENS1_IcEEEEiEEPvEEEEE9constructB7v160006INS_4pairIKS8_iEEJRKNS_21piecewise_construct_tENS_5tupleIJRSG_EEENSL_IJEEEEvvEEvRSC_PT_DpOT0_, symObjAddr: 0x20A0, symBinAddr: 0x10000F4D0, symSize: 0x40 }
  - { offsetInCU: 0x1064B, offset: 0x445B6, size: 0x8, addend: 0x0, symName: __ZNKSt3__110unique_ptrINS_11__tree_nodeINS_12__value_typeINS_12basic_stringIcNS_11char_traitsIcEENS_9allocatorIcEEEEiEEPvEENS_22__tree_node_destructorINS6_ISB_EEEEEptB7v160006Ev, symObjAddr: 0x2100, symBinAddr: 0x10000F510, symSize: 0x20 }
  - { offsetInCU: 0x1066F, offset: 0x445DA, size: 0x8, addend: 0x0, symName: __ZNSt3__110unique_ptrINS_11__tree_nodeINS_12__value_typeINS_12basic_stringIcNS_11char_traitsIcEENS_9allocatorIcEEEEiEEPvEENS_22__tree_node_destructorINS6_ISB_EEEEE11get_deleterB7v160006Ev, symObjAddr: 0x2120, symBinAddr: 0x10000F530, symSize: 0x20 }
  - { offsetInCU: 0x10693, offset: 0x445FE, size: 0x8, addend: 0x0, symName: __ZNSt3__19allocatorINS_11__tree_nodeINS_12__value_typeINS_12basic_stringIcNS_11char_traitsIcEENS0_IcEEEEiEEPvEEE8allocateB7v160006Em, symObjAddr: 0x2170, symBinAddr: 0x10000F550, symSize: 0x50 }
  - { offsetInCU: 0x106CF, offset: 0x4463A, size: 0x8, addend: 0x0, symName: __ZNSt3__116allocator_traitsINS_9allocatorINS_11__tree_nodeINS_12__value_typeINS_12basic_stringIcNS_11char_traitsIcEENS1_IcEEEEiEEPvEEEEE8max_sizeB7v160006ISC_vvEEmRKSC_, symObjAddr: 0x21C0, symBinAddr: 0x10000F5A0, symSize: 0x20 }
  - { offsetInCU: 0x106FA, offset: 0x44665, size: 0x8, addend: 0x0, symName: __ZNSt3__122__tree_node_destructorINS_9allocatorINS_11__tree_nodeINS_12__value_typeINS_12basic_stringIcNS_11char_traitsIcEENS1_IcEEEEiEEPvEEEEEC2B7v160006ERSC_b, symObjAddr: 0x2310, symBinAddr: 0x10000F5C0, symSize: 0x30 }
  - { offsetInCU: 0x10740, offset: 0x446AB, size: 0x8, addend: 0x0, symName: __ZNSt3__110unique_ptrINS_11__tree_nodeINS_12__value_typeINS_12basic_stringIcNS_11char_traitsIcEENS_9allocatorIcEEEEiEEPvEENS_22__tree_node_destructorINS6_ISB_EEEEEC2B7v160006ILb1EvEEPSB_NS_16__dependent_typeINS_27__unique_ptr_deleter_sfinaeISE_EEXT_EE20__good_rval_ref_typeE, symObjAddr: 0x2340, symBinAddr: 0x10000F5F0, symSize: 0x40 }
  - { offsetInCU: 0x1078F, offset: 0x446FA, size: 0x8, addend: 0x0, symName: __ZNSt3__117__compressed_pairIPNS_11__tree_nodeINS_12__value_typeINS_12basic_stringIcNS_11char_traitsIcEENS_9allocatorIcEEEEiEEPvEENS_22__tree_node_destructorINS6_ISB_EEEEEC1B7v160006IRSC_SF_EEOT_OT0_, symObjAddr: 0x2380, symBinAddr: 0x10000F630, symSize: 0x30 }
  - { offsetInCU: 0x107E5, offset: 0x44750, size: 0x8, addend: 0x0, symName: __ZNSt3__117__compressed_pairIPNS_11__tree_nodeINS_12__value_typeINS_12basic_stringIcNS_11char_traitsIcEENS_9allocatorIcEEEEiEEPvEENS_22__tree_node_destructorINS6_ISB_EEEEEC2B7v160006IRSC_SF_EEOT_OT0_, symObjAddr: 0x23B0, symBinAddr: 0x10000F660, symSize: 0x40 }
  - { offsetInCU: 0x1083B, offset: 0x447A6, size: 0x8, addend: 0x0, symName: __ZNSt3__122__compressed_pair_elemIPNS_11__tree_nodeINS_12__value_typeINS_12basic_stringIcNS_11char_traitsIcEENS_9allocatorIcEEEEiEEPvEELi0ELb0EEC2B7v160006IRSC_vEEOT_, symObjAddr: 0x23F0, symBinAddr: 0x10000F6A0, symSize: 0x20 }
  - { offsetInCU: 0x1087B, offset: 0x447E6, size: 0x8, addend: 0x0, symName: __ZNSt3__122__compressed_pair_elemINS_22__tree_node_destructorINS_9allocatorINS_11__tree_nodeINS_12__value_typeINS_12basic_stringIcNS_11char_traitsIcEENS2_IcEEEEiEEPvEEEEEELi1ELb0EEC2B7v160006ISE_vEEOT_, symObjAddr: 0x2410, symBinAddr: 0x10000F6C0, symSize: 0x30 }
  - { offsetInCU: 0x108BB, offset: 0x44826, size: 0x8, addend: 0x0, symName: __ZNSt3__14pairIKNS_12basic_stringIcNS_11char_traitsIcEENS_9allocatorIcEEEEiEC1B7v160006IJRS7_EJEEENS_21piecewise_construct_tENS_5tupleIJDpT_EEENSC_IJDpT0_EEE, symObjAddr: 0x2490, symBinAddr: 0x10000F740, symSize: 0x30 }
  - { offsetInCU: 0x10920, offset: 0x4488B, size: 0x8, addend: 0x0, symName: __ZNSt3__14pairIKNS_12basic_stringIcNS_11char_traitsIcEENS_9allocatorIcEEEEiEC1B7v160006IJRS7_EJEJLm0EEJEEENS_21piecewise_construct_tERNS_5tupleIJDpT_EEERNSC_IJDpT0_EEENS_15__tuple_indicesIJXspT1_EEEENSL_IJXspT2_EEEE, symObjAddr: 0x24C0, symBinAddr: 0x10000F770, symSize: 0x30 }
  - { offsetInCU: 0x109B0, offset: 0x4491B, size: 0x8, addend: 0x0, symName: __ZNSt3__14pairIKNS_12basic_stringIcNS_11char_traitsIcEENS_9allocatorIcEEEEiEC2B7v160006IJRS7_EJEJLm0EEJEEENS_21piecewise_construct_tERNS_5tupleIJDpT_EEERNSC_IJDpT0_EEENS_15__tuple_indicesIJXspT1_EEEENSL_IJXspT2_EEEE, symObjAddr: 0x24F0, symBinAddr: 0x10000F7A0, symSize: 0x50 }
  - { offsetInCU: 0x10A40, offset: 0x449AB, size: 0x8, addend: 0x0, symName: __ZNSt3__112__tuple_leafILm0ERKNS_12basic_stringIcNS_11char_traitsIcEENS_9allocatorIcEEEELb0EE3getB7v160006Ev, symObjAddr: 0x2560, symBinAddr: 0x10000F810, symSize: 0x20 }
  - { offsetInCU: 0x10A64, offset: 0x449CF, size: 0x8, addend: 0x0, symName: __ZNKSt3__117__compressed_pairIPNS_11__tree_nodeINS_12__value_typeINS_12basic_stringIcNS_11char_traitsIcEENS_9allocatorIcEEEEiEEPvEENS_22__tree_node_destructorINS6_ISB_EEEEE5firstB7v160006Ev, symObjAddr: 0x2580, symBinAddr: 0x10000F830, symSize: 0x20 }
  - { offsetInCU: 0x10A88, offset: 0x449F3, size: 0x8, addend: 0x0, symName: __ZNKSt3__122__compressed_pair_elemIPNS_11__tree_nodeINS_12__value_typeINS_12basic_stringIcNS_11char_traitsIcEENS_9allocatorIcEEEEiEEPvEELi0ELb0EE5__getB7v160006Ev, symObjAddr: 0x25A0, symBinAddr: 0x10000F850, symSize: 0x10 }
  - { offsetInCU: 0x10AAC, offset: 0x44A17, size: 0x8, addend: 0x0, symName: __ZNSt3__117__compressed_pairIPNS_11__tree_nodeINS_12__value_typeINS_12basic_stringIcNS_11char_traitsIcEENS_9allocatorIcEEEEiEEPvEENS_22__tree_node_destructorINS6_ISB_EEEEE6secondB7v160006Ev, symObjAddr: 0x25B0, symBinAddr: 0x10000F860, symSize: 0x20 }
  - { offsetInCU: 0x10AD0, offset: 0x44A3B, size: 0x8, addend: 0x0, symName: __ZNSt3__122__compressed_pair_elemINS_22__tree_node_destructorINS_9allocatorINS_11__tree_nodeINS_12__value_typeINS_12basic_stringIcNS_11char_traitsIcEENS2_IcEEEEiEEPvEEEEEELi1ELb0EE5__getB7v160006Ev, symObjAddr: 0x25D0, symBinAddr: 0x10000F880, symSize: 0x10 }
  - { offsetInCU: 0x10AF4, offset: 0x44A5F, size: 0x8, addend: 0x0, symName: __ZNSt3__16__treeINS_12__value_typeINS_12basic_stringIcNS_11char_traitsIcEENS_9allocatorIcEEEEiEENS_19__map_value_compareIS7_S8_NS_4lessIS7_EELb1EEENS5_IS8_EEE4sizeB7v160006Ev, symObjAddr: 0x2910, symBinAddr: 0x10000FBB0, symSize: 0x20 }
  - { offsetInCU: 0x10B18, offset: 0x44A83, size: 0x8, addend: 0x0, symName: __ZNKSt3__116__tree_node_baseIPvE15__parent_unsafeB7v160006Ev, symObjAddr: 0x2930, symBinAddr: 0x10000FBD0, symSize: 0x20 }
  - { offsetInCU: 0x10B3C, offset: 0x44AA7, size: 0x8, addend: 0x0, symName: __ZNSt3__116__tree_node_baseIPvE12__set_parentB7v160006EPS2_, symObjAddr: 0x2B10, symBinAddr: 0x10000FDB0, symSize: 0x20 }
  - { offsetInCU: 0x10B6F, offset: 0x44ADA, size: 0x8, addend: 0x0, symName: __ZNSt3__117__compressed_pairImNS_19__map_value_compareINS_12basic_stringIcNS_11char_traitsIcEENS_9allocatorIcEEEENS_12__value_typeIS7_iEENS_4lessIS7_EELb1EEEE5firstB7v160006Ev, symObjAddr: 0x2B30, symBinAddr: 0x10000FDD0, symSize: 0x20 }
  - { offsetInCU: 0x10B93, offset: 0x44AFE, size: 0x8, addend: 0x0, symName: __ZNSt3__117__compressed_pairIPNS_11__tree_nodeINS_12__value_typeINS_12basic_stringIcNS_11char_traitsIcEENS_9allocatorIcEEEEiEEPvEENS_22__tree_node_destructorINS6_ISB_EEEEE5firstB7v160006Ev, symObjAddr: 0x2B60, symBinAddr: 0x10000FDF0, symSize: 0x20 }
  - { offsetInCU: 0x10BB7, offset: 0x44B22, size: 0x8, addend: 0x0, symName: __ZNSt3__122__compressed_pair_elemIPNS_11__tree_nodeINS_12__value_typeINS_12basic_stringIcNS_11char_traitsIcEENS_9allocatorIcEEEEiEEPvEELi0ELb0EE5__getB7v160006Ev, symObjAddr: 0x2B80, symBinAddr: 0x10000FE10, symSize: 0x10 }
  - { offsetInCU: 0x10BDB, offset: 0x44B46, size: 0x8, addend: 0x0, symName: __ZNSt3__110unique_ptrINS_11__tree_nodeINS_12__value_typeINS_12basic_stringIcNS_11char_traitsIcEENS_9allocatorIcEEEEiEEPvEENS_22__tree_node_destructorINS6_ISB_EEEEED2B7v160006Ev, symObjAddr: 0x2B90, symBinAddr: 0x10000FE20, symSize: 0x20 }
  - { offsetInCU: 0x10C03, offset: 0x44B6E, size: 0x8, addend: 0x0, symName: __ZNSt3__110unique_ptrINS_11__tree_nodeINS_12__value_typeINS_12basic_stringIcNS_11char_traitsIcEENS_9allocatorIcEEEEiEEPvEENS_22__tree_node_destructorINS6_ISB_EEEEE5resetB7v160006EPSB_, symObjAddr: 0x2BB0, symBinAddr: 0x10000FE40, symSize: 0x70 }
  - { offsetInCU: 0x10C45, offset: 0x44BB0, size: 0x8, addend: 0x0, symName: __ZNSt3__122__tree_node_destructorINS_9allocatorINS_11__tree_nodeINS_12__value_typeINS_12basic_stringIcNS_11char_traitsIcEENS1_IcEEEEiEEPvEEEEEclB7v160006EPSB_, symObjAddr: 0x2C20, symBinAddr: 0x10000FEB0, symSize: 0x90 }
  - { offsetInCU: 0x10C78, offset: 0x44BE3, size: 0x8, addend: 0x0, symName: __ZNSt3__115__tree_iteratorINS_12__value_typeINS_12basic_stringIcNS_11char_traitsIcEENS_9allocatorIcEEEEiEEPNS_11__tree_nodeIS8_PvEElEC2B7v160006ESC_, symObjAddr: 0x2EC0, symBinAddr: 0x10000FF40, symSize: 0x20 }
  - { offsetInCU: 0x10CAF, offset: 0x44C1A, size: 0x8, addend: 0x0, symName: __ZNSt3__14pairINS_15__tree_iteratorINS_12__value_typeINS_12basic_stringIcNS_11char_traitsIcEENS_9allocatorIcEEEEiEEPNS_11__tree_nodeIS9_PvEElEEbEC2B7v160006ISE_RbLSB_0EEEOT_OT0_, symObjAddr: 0x2EE0, symBinAddr: 0x10000FF60, symSize: 0x30 }
  - { offsetInCU: 0x10D0C, offset: 0x44C77, size: 0x8, addend: 0x0, symName: __ZNSt3__15tupleIJRKNS_12basic_stringIcNS_11char_traitsIcEENS_9allocatorIcEEEEEEC1B7v160006INS_4_AndELi0EEES8_, symObjAddr: 0x2F10, symBinAddr: 0x10000FF90, symSize: 0x30 }
  - { offsetInCU: 0x10D52, offset: 0x44CBD, size: 0x8, addend: 0x0, symName: __ZNSt3__15tupleIJRKNS_12basic_stringIcNS_11char_traitsIcEENS_9allocatorIcEEEEEEC2B7v160006INS_4_AndELi0EEES8_, symObjAddr: 0x2F40, symBinAddr: 0x10000FFC0, symSize: 0x30 }
  - { offsetInCU: 0x10D98, offset: 0x44D03, size: 0x8, addend: 0x0, symName: __ZNSt3__112__tuple_implINS_15__tuple_indicesIJLm0EEEEJRKNS_12basic_stringIcNS_11char_traitsIcEENS_9allocatorIcEEEEEEC1B7v160006IJLm0EEJSA_EJEJEJSA_EEENS1_IJXspT_EEEENS_13__tuple_typesIJDpT0_EEENS1_IJXspT1_EEEENSE_IJDpT2_EEEDpOT3_, symObjAddr: 0x2F70, symBinAddr: 0x10000FFF0, symSize: 0x30 }
  - { offsetInCU: 0x10E2C, offset: 0x44D97, size: 0x8, addend: 0x0, symName: __ZNSt3__112__tuple_implINS_15__tuple_indicesIJLm0EEEEJRKNS_12basic_stringIcNS_11char_traitsIcEENS_9allocatorIcEEEEEEC2B7v160006IJLm0EEJSA_EJEJEJSA_EEENS1_IJXspT_EEEENS_13__tuple_typesIJDpT0_EEENS1_IJXspT1_EEEENSE_IJDpT2_EEEDpOT3_, symObjAddr: 0x2FA0, symBinAddr: 0x100010020, symSize: 0x30 }
  - { offsetInCU: 0x10EC0, offset: 0x44E2B, size: 0x8, addend: 0x0, symName: __ZNSt3__112__tuple_leafILm0ERKNS_12basic_stringIcNS_11char_traitsIcEENS_9allocatorIcEEEELb0EEC2B7v160006IS8_vEEOT_, symObjAddr: 0x2FD0, symBinAddr: 0x100010050, symSize: 0x20 }
  - { offsetInCU: 0x10F01, offset: 0x44E6C, size: 0x8, addend: 0x0, symName: __ZNSt3__114pointer_traitsIPNS_12__value_typeINS_12basic_stringIcNS_11char_traitsIcEENS_9allocatorIcEEEEiEEE10pointer_toB7v160006ERS8_, symObjAddr: 0x2FF0, symBinAddr: 0x100010070, symSize: 0x10 }
  - { offsetInCU: 0x10F23, offset: 0x44E8E, size: 0x8, addend: 0x0, symName: __ZNKSt3__115__tree_iteratorINS_12__value_typeINS_12basic_stringIcNS_11char_traitsIcEENS_9allocatorIcEEEEiEEPNS_11__tree_nodeIS8_PvEElE8__get_npB7v160006Ev, symObjAddr: 0x3000, symBinAddr: 0x100010080, symSize: 0x20 }
  - { offsetInCU: 0x10F47, offset: 0x44EB2, size: 0x8, addend: 0x0, symName: __ZNSt3__16__treeINS_12__value_typeINS_12basic_stringIcNS_11char_traitsIcEENS_9allocatorIcEEEEiEENS_19__map_value_compareIS7_S8_NS_4lessIS7_EELb1EEENS5_IS8_EEE4findIS7_EENS_15__tree_iteratorIS8_PNS_11__tree_nodeIS8_PvEElEERKT_, symObjAddr: 0x3050, symBinAddr: 0x1000100A0, symSize: 0xE0 }
  - { offsetInCU: 0x10F95, offset: 0x44F00, size: 0x8, addend: 0x0, symName: __ZNSt3__114__map_iteratorINS_15__tree_iteratorINS_12__value_typeINS_12basic_stringIcNS_11char_traitsIcEENS_9allocatorIcEEEEiEEPNS_11__tree_nodeIS9_PvEElEEEC1B7v160006ESE_, symObjAddr: 0x3130, symBinAddr: 0x100010180, symSize: 0x30 }
  - { offsetInCU: 0x10FCC, offset: 0x44F37, size: 0x8, addend: 0x0, symName: __ZNSt3__16__treeINS_12__value_typeINS_12basic_stringIcNS_11char_traitsIcEENS_9allocatorIcEEEEiEENS_19__map_value_compareIS7_S8_NS_4lessIS7_EELb1EEENS5_IS8_EEE13__lower_boundIS7_EENS_15__tree_iteratorIS8_PNS_11__tree_nodeIS8_PvEElEERKT_SK_PNS_15__tree_end_nodeIPNS_16__tree_node_baseISI_EEEE, symObjAddr: 0x3160, symBinAddr: 0x1000101B0, symSize: 0x90 }
  - { offsetInCU: 0x11029, offset: 0x44F94, size: 0x8, addend: 0x0, symName: __ZNSt3__16__treeINS_12__value_typeINS_12basic_stringIcNS_11char_traitsIcEENS_9allocatorIcEEEEiEENS_19__map_value_compareIS7_S8_NS_4lessIS7_EELb1EEENS5_IS8_EEE3endB7v160006Ev, symObjAddr: 0x3220, symBinAddr: 0x100010270, symSize: 0x30 }
  - { offsetInCU: 0x1104D, offset: 0x44FB8, size: 0x8, addend: 0x0, symName: __ZNKSt3__115__tree_iteratorINS_12__value_typeINS_12basic_stringIcNS_11char_traitsIcEENS_9allocatorIcEEEEiEEPNS_11__tree_nodeIS8_PvEElEdeB7v160006Ev, symObjAddr: 0x3250, symBinAddr: 0x1000102A0, symSize: 0x20 }
  - { offsetInCU: 0x11071, offset: 0x44FDC, size: 0x8, addend: 0x0, symName: __ZNSt3__115__tree_iteratorINS_12__value_typeINS_12basic_stringIcNS_11char_traitsIcEENS_9allocatorIcEEEEiEEPNS_11__tree_nodeIS8_PvEElEC1B7v160006EPNS_15__tree_end_nodeIPNS_16__tree_node_baseISA_EEEE, symObjAddr: 0x3270, symBinAddr: 0x1000102C0, symSize: 0x30 }
  - { offsetInCU: 0x110A8, offset: 0x45013, size: 0x8, addend: 0x0, symName: __ZNSt3__115__tree_iteratorINS_12__value_typeINS_12basic_stringIcNS_11char_traitsIcEENS_9allocatorIcEEEEiEEPNS_11__tree_nodeIS8_PvEElEC2B7v160006EPNS_15__tree_end_nodeIPNS_16__tree_node_baseISA_EEEE, symObjAddr: 0x32A0, symBinAddr: 0x1000102F0, symSize: 0x20 }
  - { offsetInCU: 0x110DF, offset: 0x4504A, size: 0x8, addend: 0x0, symName: __ZNSt3__114__map_iteratorINS_15__tree_iteratorINS_12__value_typeINS_12basic_stringIcNS_11char_traitsIcEENS_9allocatorIcEEEEiEEPNS_11__tree_nodeIS9_PvEElEEEC2B7v160006ESE_, symObjAddr: 0x32F0, symBinAddr: 0x100010340, symSize: 0x20 }
  - { offsetInCU: 0x11116, offset: 0x45081, size: 0x8, addend: 0x0, symName: __ZNSt3__15dequeINS_13unordered_setINS_12basic_stringIcNS_11char_traitsIcEENS_9allocatorIcEEEENS_4hashIS7_EENS_8equal_toIS7_EENS5_IS7_EEEENS5_ISD_EEE4backEv, symObjAddr: 0x3310, symBinAddr: 0x100010360, symSize: 0x70 }
  - { offsetInCU: 0x1114C, offset: 0x450B7, size: 0x8, addend: 0x0, symName: __ZNSt3__112__hash_tableINS_12basic_stringIcNS_11char_traitsIcEENS_9allocatorIcEEEENS_4hashIS6_EENS_8equal_toIS6_EENS4_IS6_EEE15__insert_uniqueB7v160006ERKS6_, symObjAddr: 0x3410, symBinAddr: 0x1000103D0, symSize: 0x50 }
  - { offsetInCU: 0x1117F, offset: 0x450EA, size: 0x8, addend: 0x0, symName: __ZNSt3__14pairINS_21__hash_const_iteratorIPNS_11__hash_nodeINS_12basic_stringIcNS_11char_traitsIcEENS_9allocatorIcEEEEPvEEEEbEC1B7v160006INS_15__hash_iteratorISB_EEbLS9_0EEEONS0_IT_T0_EE, symObjAddr: 0x3460, symBinAddr: 0x100010420, symSize: 0x30 }
  - { offsetInCU: 0x111CF, offset: 0x4513A, size: 0x8, addend: 0x0, symName: __ZNSt3__112__hash_tableINS_12basic_stringIcNS_11char_traitsIcEENS_9allocatorIcEEEENS_4hashIS6_EENS_8equal_toIS6_EENS4_IS6_EEE25__emplace_unique_key_argsIS6_JRKS6_EEENS_4pairINS_15__hash_iteratorIPNS_11__hash_nodeIS6_PvEEEEbEERKT_DpOT0_, symObjAddr: 0x3490, symBinAddr: 0x100010450, symSize: 0x630 }
  - { offsetInCU: 0x112AD, offset: 0x45218, size: 0x8, addend: 0x0, symName: __ZNSt3__122__hash_key_value_typesINS_12basic_stringIcNS_11char_traitsIcEENS_9allocatorIcEEEEE9__get_keyB7v160006ERKS6_, symObjAddr: 0x3AC0, symBinAddr: 0x100010A80, symSize: 0x10 }
  - { offsetInCU: 0x112CF, offset: 0x4523A, size: 0x8, addend: 0x0, symName: __ZNSt3__112__hash_tableINS_12basic_stringIcNS_11char_traitsIcEENS_9allocatorIcEEEENS_4hashIS6_EENS_8equal_toIS6_EENS4_IS6_EEE13hash_functionB7v160006Ev, symObjAddr: 0x3AD0, symBinAddr: 0x100010A90, symSize: 0x20 }
  - { offsetInCU: 0x112F3, offset: 0x4525E, size: 0x8, addend: 0x0, symName: __ZNKSt3__113__string_hashIcNS_9allocatorIcEEEclERKNS_12basic_stringIcNS_11char_traitsIcEES2_EE, symObjAddr: 0x3AF0, symBinAddr: 0x100010AB0, symSize: 0x60 }
  - { offsetInCU: 0x11326, offset: 0x45291, size: 0x8, addend: 0x0, symName: __ZNKSt3__112__hash_tableINS_12basic_stringIcNS_11char_traitsIcEENS_9allocatorIcEEEENS_4hashIS6_EENS_8equal_toIS6_EENS4_IS6_EEE12bucket_countB7v160006Ev, symObjAddr: 0x3B50, symBinAddr: 0x100010B10, symSize: 0x30 }
  - { offsetInCU: 0x1134A, offset: 0x452B5, size: 0x8, addend: 0x0, symName: __ZNKSt3__110unique_ptrIA_PNS_16__hash_node_baseIPNS_11__hash_nodeINS_12basic_stringIcNS_11char_traitsIcEENS_9allocatorIcEEEEPvEEEENS_25__bucket_list_deallocatorINS6_ISD_EEEEEixB7v160006Em, symObjAddr: 0x3C00, symBinAddr: 0x100010BC0, symSize: 0x30 }
  - { offsetInCU: 0x1137D, offset: 0x452E8, size: 0x8, addend: 0x0, symName: __ZNKSt3__116__hash_node_baseIPNS_11__hash_nodeINS_12basic_stringIcNS_11char_traitsIcEENS_9allocatorIcEEEEPvEEE6__hashB7v160006Ev, symObjAddr: 0x3C30, symBinAddr: 0x100010BF0, symSize: 0x20 }
  - { offsetInCU: 0x113A1, offset: 0x4530C, size: 0x8, addend: 0x0, symName: __ZNSt3__112__hash_tableINS_12basic_stringIcNS_11char_traitsIcEENS_9allocatorIcEEEENS_4hashIS6_EENS_8equal_toIS6_EENS4_IS6_EEE6key_eqB7v160006Ev, symObjAddr: 0x3C50, symBinAddr: 0x100010C10, symSize: 0x20 }
  - { offsetInCU: 0x113C5, offset: 0x45330, size: 0x8, addend: 0x0, symName: __ZNKSt3__18equal_toINS_12basic_stringIcNS_11char_traitsIcEENS_9allocatorIcEEEEEclB7v160006ERKS6_S9_, symObjAddr: 0x3C70, symBinAddr: 0x100010C30, symSize: 0x30 }
  - { offsetInCU: 0x11407, offset: 0x45372, size: 0x8, addend: 0x0, symName: __ZNSt3__112__hash_tableINS_12basic_stringIcNS_11char_traitsIcEENS_9allocatorIcEEEENS_4hashIS6_EENS_8equal_toIS6_EENS4_IS6_EEE21__construct_node_hashIRKS6_JEEENS_10unique_ptrINS_11__hash_nodeIS6_PvEENS_22__hash_node_destructorINS4_ISJ_EEEEEEmOT_DpOT0_, symObjAddr: 0x3CC0, symBinAddr: 0x100010C60, symSize: 0x140 }
  - { offsetInCU: 0x11479, offset: 0x453E4, size: 0x8, addend: 0x0, symName: __ZNSt3__112__hash_tableINS_12basic_stringIcNS_11char_traitsIcEENS_9allocatorIcEEEENS_4hashIS6_EENS_8equal_toIS6_EENS4_IS6_EEE4sizeB7v160006Ev, symObjAddr: 0x3E00, symBinAddr: 0x100010DA0, symSize: 0x20 }
  - { offsetInCU: 0x1149D, offset: 0x45408, size: 0x8, addend: 0x0, symName: __ZNSt3__112__hash_tableINS_12basic_stringIcNS_11char_traitsIcEENS_9allocatorIcEEEENS_4hashIS6_EENS_8equal_toIS6_EENS4_IS6_EEE15max_load_factorB7v160006Ev, symObjAddr: 0x3E20, symBinAddr: 0x100010DC0, symSize: 0x20 }
  - { offsetInCU: 0x114C1, offset: 0x4542C, size: 0x8, addend: 0x0, symName: __ZNSt3__112__hash_tableINS_12basic_stringIcNS_11char_traitsIcEENS_9allocatorIcEEEENS_4hashIS6_EENS_8equal_toIS6_EENS4_IS6_EEE15__rehash_uniqueB7v160006Em, symObjAddr: 0x3E40, symBinAddr: 0x100010DE0, symSize: 0x30 }
  - { offsetInCU: 0x114F3, offset: 0x4545E, size: 0x8, addend: 0x0, symName: __Z4ceilB7v160006f, symObjAddr: 0x3EE0, symBinAddr: 0x100010E50, symSize: 0x20 }
  - { offsetInCU: 0x11522, offset: 0x4548D, size: 0x8, addend: 0x0, symName: __ZNSt3__116__hash_node_baseIPNS_11__hash_nodeINS_12basic_stringIcNS_11char_traitsIcEENS_9allocatorIcEEEEPvEEE5__ptrB7v160006Ev, symObjAddr: 0x3F20, symBinAddr: 0x100010E70, symSize: 0x20 }
  - { offsetInCU: 0x11546, offset: 0x454B1, size: 0x8, addend: 0x0, symName: __ZNKSt3__110unique_ptrINS_11__hash_nodeINS_12basic_stringIcNS_11char_traitsIcEENS_9allocatorIcEEEEPvEENS_22__hash_node_destructorINS5_IS9_EEEEEptB7v160006Ev, symObjAddr: 0x3F40, symBinAddr: 0x100010E90, symSize: 0x20 }
  - { offsetInCU: 0x1156A, offset: 0x454D5, size: 0x8, addend: 0x0, symName: __ZNKSt3__110unique_ptrINS_11__hash_nodeINS_12basic_stringIcNS_11char_traitsIcEENS_9allocatorIcEEEEPvEENS_22__hash_node_destructorINS5_IS9_EEEEE3getB7v160006Ev, symObjAddr: 0x3F60, symBinAddr: 0x100010EB0, symSize: 0x20 }
  - { offsetInCU: 0x1158E, offset: 0x454F9, size: 0x8, addend: 0x0, symName: __ZNSt3__110unique_ptrINS_11__hash_nodeINS_12basic_stringIcNS_11char_traitsIcEENS_9allocatorIcEEEEPvEENS_22__hash_node_destructorINS5_IS9_EEEEE7releaseB7v160006Ev, symObjAddr: 0x3F80, symBinAddr: 0x100010ED0, symSize: 0x40 }
  - { offsetInCU: 0x115C1, offset: 0x4552C, size: 0x8, addend: 0x0, symName: __ZNSt3__110unique_ptrINS_11__hash_nodeINS_12basic_stringIcNS_11char_traitsIcEENS_9allocatorIcEEEEPvEENS_22__hash_node_destructorINS5_IS9_EEEEED1B7v160006Ev, symObjAddr: 0x3FC0, symBinAddr: 0x100010F10, symSize: 0x20 }
  - { offsetInCU: 0x115E9, offset: 0x45554, size: 0x8, addend: 0x0, symName: __ZNSt3__115__hash_iteratorIPNS_11__hash_nodeINS_12basic_stringIcNS_11char_traitsIcEENS_9allocatorIcEEEEPvEEEC1B7v160006EPNS_16__hash_node_baseISA_EEPKv, symObjAddr: 0x3FE0, symBinAddr: 0x100010F30, symSize: 0x30 }
  - { offsetInCU: 0x11634, offset: 0x4559F, size: 0x8, addend: 0x0, symName: __ZNSt3__14pairINS_15__hash_iteratorIPNS_11__hash_nodeINS_12basic_stringIcNS_11char_traitsIcEENS_9allocatorIcEEEEPvEEEEbEC1B7v160006ISC_RbLS9_0EEEOT_OT0_, symObjAddr: 0x4010, symBinAddr: 0x100010F60, symSize: 0x30 }
  - { offsetInCU: 0x11691, offset: 0x455FC, size: 0x8, addend: 0x0, symName: __ZNSt3__117__compressed_pairImNS_4hashINS_12basic_stringIcNS_11char_traitsIcEENS_9allocatorIcEEEEEEE6secondB7v160006Ev, symObjAddr: 0x4040, symBinAddr: 0x100010F90, symSize: 0x20 }
  - { offsetInCU: 0x116B5, offset: 0x45620, size: 0x8, addend: 0x0, symName: __ZNSt3__122__compressed_pair_elemINS_4hashINS_12basic_stringIcNS_11char_traitsIcEENS_9allocatorIcEEEEEELi1ELb1EE5__getB7v160006Ev, symObjAddr: 0x4060, symBinAddr: 0x100010FB0, symSize: 0x10 }
  - { offsetInCU: 0x116D9, offset: 0x45644, size: 0x8, addend: 0x0, symName: __ZNSt3__121__murmur2_or_cityhashImLm64EEclEPKvm, symObjAddr: 0x40B0, symBinAddr: 0x100011000, symSize: 0x3D0 }
  - { offsetInCU: 0x11771, offset: 0x456DC, size: 0x8, addend: 0x0, symName: __ZNSt3__121__murmur2_or_cityhashImLm64EE18__hash_len_0_to_16EPKcm, symObjAddr: 0x4480, symBinAddr: 0x1000113D0, symSize: 0x180 }
  - { offsetInCU: 0x11849, offset: 0x457B4, size: 0x8, addend: 0x0, symName: __ZNSt3__121__murmur2_or_cityhashImLm64EE19__hash_len_17_to_32EPKcm, symObjAddr: 0x4600, symBinAddr: 0x100011550, symSize: 0x100 }
  - { offsetInCU: 0x118B1, offset: 0x4581C, size: 0x8, addend: 0x0, symName: __ZNSt3__121__murmur2_or_cityhashImLm64EE19__hash_len_33_to_64EPKcm, symObjAddr: 0x4700, symBinAddr: 0x100011650, symSize: 0x260 }
  - { offsetInCU: 0x11962, offset: 0x458CD, size: 0x8, addend: 0x0, symName: __ZNSt3__121__murmur2_or_cityhashImLm64EE13__hash_len_16Emm, symObjAddr: 0x4980, symBinAddr: 0x1000118D0, symSize: 0x90 }
  - { offsetInCU: 0x119BC, offset: 0x45927, size: 0x8, addend: 0x0, symName: __ZNSt3__121__murmur2_or_cityhashImLm64EE29__weak_hash_len_32_with_seedsEPKcmm, symObjAddr: 0x4A10, symBinAddr: 0x100011960, symSize: 0x90 }
  - { offsetInCU: 0x119FA, offset: 0x45965, size: 0x8, addend: 0x0, symName: __ZNSt3__121__murmur2_or_cityhashImLm64EE8__rotateEmi, symObjAddr: 0x4AA0, symBinAddr: 0x1000119F0, symSize: 0x50 }
  - { offsetInCU: 0x11A2A, offset: 0x45995, size: 0x8, addend: 0x0, symName: __ZNSt3__14pairImmEaSB7v160006EOS1_, symObjAddr: 0x4AF0, symBinAddr: 0x100011A40, symSize: 0x30 }
  - { offsetInCU: 0x11A5D, offset: 0x459C8, size: 0x8, addend: 0x0, symName: __ZNSt3__121__murmur2_or_cityhashImLm64EE11__shift_mixEm, symObjAddr: 0x4B60, symBinAddr: 0x100011AB0, symSize: 0x20 }
  - { offsetInCU: 0x11A7F, offset: 0x459EA, size: 0x8, addend: 0x0, symName: __ZNSt3__121__murmur2_or_cityhashImLm64EE22__rotate_by_at_least_1Emi, symObjAddr: 0x4B80, symBinAddr: 0x100011AD0, symSize: 0x30 }
  - { offsetInCU: 0x11AAF, offset: 0x45A1A, size: 0x8, addend: 0x0, symName: __ZNSt3__121__murmur2_or_cityhashImLm64EE29__weak_hash_len_32_with_seedsEmmmmmm, symObjAddr: 0x4BD0, symBinAddr: 0x100011B20, symSize: 0xD0 }
  - { offsetInCU: 0x11B2B, offset: 0x45A96, size: 0x8, addend: 0x0, symName: __ZNSt3__14pairImmEC1B7v160006ImmLPv0EEEOT_OT0_, symObjAddr: 0x4CA0, symBinAddr: 0x100011BF0, symSize: 0x30 }
  - { offsetInCU: 0x11B88, offset: 0x45AF3, size: 0x8, addend: 0x0, symName: __ZNSt3__14pairImmEC2B7v160006ImmLPv0EEEOT_OT0_, symObjAddr: 0x4CD0, symBinAddr: 0x100011C20, symSize: 0x30 }
  - { offsetInCU: 0x11BE5, offset: 0x45B50, size: 0x8, addend: 0x0, symName: __ZNKSt3__110unique_ptrIA_PNS_16__hash_node_baseIPNS_11__hash_nodeINS_12basic_stringIcNS_11char_traitsIcEENS_9allocatorIcEEEEPvEEEENS_25__bucket_list_deallocatorINS6_ISD_EEEEE11get_deleterB7v160006Ev, symObjAddr: 0x4D00, symBinAddr: 0x100011C50, symSize: 0x20 }
  - { offsetInCU: 0x11C09, offset: 0x45B74, size: 0x8, addend: 0x0, symName: __ZNKSt3__125__bucket_list_deallocatorINS_9allocatorIPNS_16__hash_node_baseIPNS_11__hash_nodeINS_12basic_stringIcNS_11char_traitsIcEENS1_IcEEEEPvEEEEEEE4sizeB7v160006Ev, symObjAddr: 0x4D20, symBinAddr: 0x100011C70, symSize: 0x20 }
  - { offsetInCU: 0x11C2D, offset: 0x45B98, size: 0x8, addend: 0x0, symName: __ZNKSt3__117__compressed_pairIPPNS_16__hash_node_baseIPNS_11__hash_nodeINS_12basic_stringIcNS_11char_traitsIcEENS_9allocatorIcEEEEPvEEEENS_25__bucket_list_deallocatorINS6_ISD_EEEEE6secondB7v160006Ev, symObjAddr: 0x4D40, symBinAddr: 0x100011C90, symSize: 0x20 }
  - { offsetInCU: 0x11C51, offset: 0x45BBC, size: 0x8, addend: 0x0, symName: __ZNKSt3__122__compressed_pair_elemINS_25__bucket_list_deallocatorINS_9allocatorIPNS_16__hash_node_baseIPNS_11__hash_nodeINS_12basic_stringIcNS_11char_traitsIcEENS2_IcEEEEPvEEEEEEEELi1ELb0EE5__getB7v160006Ev, symObjAddr: 0x4D60, symBinAddr: 0x100011CB0, symSize: 0x10 }
  - { offsetInCU: 0x11C75, offset: 0x45BE0, size: 0x8, addend: 0x0, symName: __ZNKSt3__117__compressed_pairImNS_9allocatorIPNS_16__hash_node_baseIPNS_11__hash_nodeINS_12basic_stringIcNS_11char_traitsIcEENS1_IcEEEEPvEEEEEEE5firstB7v160006Ev, symObjAddr: 0x4D70, symBinAddr: 0x100011CC0, symSize: 0x20 }
  - { offsetInCU: 0x11C99, offset: 0x45C04, size: 0x8, addend: 0x0, symName: __ZNKSt3__117__compressed_pairIPPNS_16__hash_node_baseIPNS_11__hash_nodeINS_12basic_stringIcNS_11char_traitsIcEENS_9allocatorIcEEEEPvEEEENS_25__bucket_list_deallocatorINS6_ISD_EEEEE5firstB7v160006Ev, symObjAddr: 0x4D90, symBinAddr: 0x100011CE0, symSize: 0x20 }
  - { offsetInCU: 0x11CBD, offset: 0x45C28, size: 0x8, addend: 0x0, symName: __ZNKSt3__122__compressed_pair_elemIPPNS_16__hash_node_baseIPNS_11__hash_nodeINS_12basic_stringIcNS_11char_traitsIcEENS_9allocatorIcEEEEPvEEEELi0ELb0EE5__getB7v160006Ev, symObjAddr: 0x4DB0, symBinAddr: 0x100011D00, symSize: 0x10 }
  - { offsetInCU: 0x11CE1, offset: 0x45C4C, size: 0x8, addend: 0x0, symName: __ZNSt3__117__compressed_pairIfNS_8equal_toINS_12basic_stringIcNS_11char_traitsIcEENS_9allocatorIcEEEEEEE6secondB7v160006Ev, symObjAddr: 0x4DC0, symBinAddr: 0x100011D10, symSize: 0x20 }
  - { offsetInCU: 0x11D05, offset: 0x45C70, size: 0x8, addend: 0x0, symName: __ZNSt3__122__compressed_pair_elemINS_8equal_toINS_12basic_stringIcNS_11char_traitsIcEENS_9allocatorIcEEEEEELi1ELb1EE5__getB7v160006Ev, symObjAddr: 0x4DE0, symBinAddr: 0x100011D30, symSize: 0x10 }
  - { offsetInCU: 0x11D29, offset: 0x45C94, size: 0x8, addend: 0x0, symName: __ZNSt3__116allocator_traitsINS_9allocatorINS_11__hash_nodeINS_12basic_stringIcNS_11char_traitsIcEENS1_IcEEEEPvEEEEE8allocateB7v160006ERSA_m, symObjAddr: 0x4F30, symBinAddr: 0x100011E50, symSize: 0x30 }
  - { offsetInCU: 0x11D5B, offset: 0x45CC6, size: 0x8, addend: 0x0, symName: __ZNSt3__122__hash_node_destructorINS_9allocatorINS_11__hash_nodeINS_12basic_stringIcNS_11char_traitsIcEENS1_IcEEEEPvEEEEEC1B7v160006ERSA_b, symObjAddr: 0x4F60, symBinAddr: 0x100011E80, symSize: 0x40 }
  - { offsetInCU: 0x11DA6, offset: 0x45D11, size: 0x8, addend: 0x0, symName: __ZNSt3__110unique_ptrINS_11__hash_nodeINS_12basic_stringIcNS_11char_traitsIcEENS_9allocatorIcEEEEPvEENS_22__hash_node_destructorINS5_IS9_EEEEEC1B7v160006ILb1EvEEPS9_NS_16__dependent_typeINS_27__unique_ptr_deleter_sfinaeISC_EEXT_EE20__good_rval_ref_typeE, symObjAddr: 0x4FA0, symBinAddr: 0x100011EC0, symSize: 0x30 }
  - { offsetInCU: 0x11DF5, offset: 0x45D60, size: 0x8, addend: 0x0, symName: __ZNSt3__116allocator_traitsINS_9allocatorINS_11__hash_nodeINS_12basic_stringIcNS_11char_traitsIcEENS1_IcEEEEPvEEEEE9constructB7v160006IS7_JRKS7_EvvEEvRSA_PT_DpOT0_, symObjAddr: 0x4FD0, symBinAddr: 0x100011EF0, symSize: 0x30 }
  - { offsetInCU: 0x11E49, offset: 0x45DB4, size: 0x8, addend: 0x0, symName: __ZNSt3__110unique_ptrINS_11__hash_nodeINS_12basic_stringIcNS_11char_traitsIcEENS_9allocatorIcEEEEPvEENS_22__hash_node_destructorINS5_IS9_EEEEE11get_deleterB7v160006Ev, symObjAddr: 0x5010, symBinAddr: 0x100011F20, symSize: 0x20 }
  - { offsetInCU: 0x11E6D, offset: 0x45DD8, size: 0x8, addend: 0x0, symName: __ZNSt3__19allocatorINS_11__hash_nodeINS_12basic_stringIcNS_11char_traitsIcEENS0_IcEEEEPvEEE8allocateB7v160006Em, symObjAddr: 0x5060, symBinAddr: 0x100011F40, symSize: 0x50 }
  - { offsetInCU: 0x11EA9, offset: 0x45E14, size: 0x8, addend: 0x0, symName: __ZNSt3__116allocator_traitsINS_9allocatorINS_11__hash_nodeINS_12basic_stringIcNS_11char_traitsIcEENS1_IcEEEEPvEEEEE8max_sizeB7v160006ISA_vvEEmRKSA_, symObjAddr: 0x50B0, symBinAddr: 0x100011F90, symSize: 0x30 }
  - { offsetInCU: 0x11ED4, offset: 0x45E3F, size: 0x8, addend: 0x0, symName: __ZNSt3__122__hash_node_destructorINS_9allocatorINS_11__hash_nodeINS_12basic_stringIcNS_11char_traitsIcEENS1_IcEEEEPvEEEEEC2B7v160006ERSA_b, symObjAddr: 0x50E0, symBinAddr: 0x100011FC0, symSize: 0x30 }
  - { offsetInCU: 0x11F1A, offset: 0x45E85, size: 0x8, addend: 0x0, symName: __ZNSt3__110unique_ptrINS_11__hash_nodeINS_12basic_stringIcNS_11char_traitsIcEENS_9allocatorIcEEEEPvEENS_22__hash_node_destructorINS5_IS9_EEEEEC2B7v160006ILb1EvEEPS9_NS_16__dependent_typeINS_27__unique_ptr_deleter_sfinaeISC_EEXT_EE20__good_rval_ref_typeE, symObjAddr: 0x5110, symBinAddr: 0x100011FF0, symSize: 0x40 }
  - { offsetInCU: 0x11F69, offset: 0x45ED4, size: 0x8, addend: 0x0, symName: __ZNSt3__117__compressed_pairIPNS_11__hash_nodeINS_12basic_stringIcNS_11char_traitsIcEENS_9allocatorIcEEEEPvEENS_22__hash_node_destructorINS5_IS9_EEEEEC1B7v160006IRSA_SD_EEOT_OT0_, symObjAddr: 0x5150, symBinAddr: 0x100012030, symSize: 0x30 }
  - { offsetInCU: 0x11FBF, offset: 0x45F2A, size: 0x8, addend: 0x0, symName: __ZNSt3__117__compressed_pairIPNS_11__hash_nodeINS_12basic_stringIcNS_11char_traitsIcEENS_9allocatorIcEEEEPvEENS_22__hash_node_destructorINS5_IS9_EEEEEC2B7v160006IRSA_SD_EEOT_OT0_, symObjAddr: 0x5180, symBinAddr: 0x100012060, symSize: 0x40 }
  - { offsetInCU: 0x12015, offset: 0x45F80, size: 0x8, addend: 0x0, symName: __ZNSt3__122__compressed_pair_elemIPNS_11__hash_nodeINS_12basic_stringIcNS_11char_traitsIcEENS_9allocatorIcEEEEPvEELi0ELb0EEC2B7v160006IRSA_vEEOT_, symObjAddr: 0x51C0, symBinAddr: 0x1000120A0, symSize: 0x20 }
  - { offsetInCU: 0x12055, offset: 0x45FC0, size: 0x8, addend: 0x0, symName: __ZNSt3__122__compressed_pair_elemINS_22__hash_node_destructorINS_9allocatorINS_11__hash_nodeINS_12basic_stringIcNS_11char_traitsIcEENS2_IcEEEEPvEEEEEELi1ELb0EEC2B7v160006ISC_vEEOT_, symObjAddr: 0x51E0, symBinAddr: 0x1000120C0, symSize: 0x30 }
  - { offsetInCU: 0x1209A, offset: 0x46005, size: 0x8, addend: 0x0, symName: __ZNSt3__117__compressed_pairIPNS_11__hash_nodeINS_12basic_stringIcNS_11char_traitsIcEENS_9allocatorIcEEEEPvEENS_22__hash_node_destructorINS5_IS9_EEEEE6secondB7v160006Ev, symObjAddr: 0x5250, symBinAddr: 0x1000120F0, symSize: 0x20 }
  - { offsetInCU: 0x120BE, offset: 0x46029, size: 0x8, addend: 0x0, symName: __ZNSt3__122__compressed_pair_elemINS_22__hash_node_destructorINS_9allocatorINS_11__hash_nodeINS_12basic_stringIcNS_11char_traitsIcEENS2_IcEEEEPvEEEEEELi1ELb0EE5__getB7v160006Ev, symObjAddr: 0x5270, symBinAddr: 0x100012110, symSize: 0x10 }
  - { offsetInCU: 0x120E2, offset: 0x4604D, size: 0x8, addend: 0x0, symName: __ZNSt3__117__compressed_pairImNS_4hashINS_12basic_stringIcNS_11char_traitsIcEENS_9allocatorIcEEEEEEE5firstB7v160006Ev, symObjAddr: 0x5280, symBinAddr: 0x100012120, symSize: 0x20 }
  - { offsetInCU: 0x12106, offset: 0x46071, size: 0x8, addend: 0x0, symName: __ZNSt3__117__compressed_pairIfNS_8equal_toINS_12basic_stringIcNS_11char_traitsIcEENS_9allocatorIcEEEEEEE5firstB7v160006Ev, symObjAddr: 0x52A0, symBinAddr: 0x100012140, symSize: 0x20 }
  - { offsetInCU: 0x1212A, offset: 0x46095, size: 0x8, addend: 0x0, symName: __ZNSt3__122__compressed_pair_elemIfLi0ELb0EE5__getB7v160006Ev, symObjAddr: 0x52C0, symBinAddr: 0x100012160, symSize: 0x10 }
  - { offsetInCU: 0x1214E, offset: 0x460B9, size: 0x8, addend: 0x0, symName: __ZNSt3__112__hash_tableINS_12basic_stringIcNS_11char_traitsIcEENS_9allocatorIcEEEENS_4hashIS6_EENS_8equal_toIS6_EENS4_IS6_EEE8__rehashILb1EEEvm, symObjAddr: 0x52D0, symBinAddr: 0x100012170, symSize: 0x230 }
  - { offsetInCU: 0x1219D, offset: 0x46108, size: 0x8, addend: 0x0, symName: __ZNSt3__112__hash_tableINS_12basic_stringIcNS_11char_traitsIcEENS_9allocatorIcEEEENS_4hashIS6_EENS_8equal_toIS6_EENS4_IS6_EEE11__do_rehashILb1EEEvm, symObjAddr: 0x5500, symBinAddr: 0x1000123A0, symSize: 0x260 }
  - { offsetInCU: 0x1227F, offset: 0x461EA, size: 0x8, addend: 0x0, symName: __ZNSt3__110unique_ptrIA_PNS_16__hash_node_baseIPNS_11__hash_nodeINS_12basic_stringIcNS_11char_traitsIcEENS_9allocatorIcEEEEPvEEEENS_25__bucket_list_deallocatorINS6_ISD_EEEEE11get_deleterB7v160006Ev, symObjAddr: 0x57D0, symBinAddr: 0x100012670, symSize: 0x20 }
  - { offsetInCU: 0x122A3, offset: 0x4620E, size: 0x8, addend: 0x0, symName: __ZNSt3__110unique_ptrIA_PNS_16__hash_node_baseIPNS_11__hash_nodeINS_12basic_stringIcNS_11char_traitsIcEENS_9allocatorIcEEEEPvEEEENS_25__bucket_list_deallocatorINS6_ISD_EEEEE5resetB7v160006IPSD_EENS_9enable_ifIXsr28_CheckArrayPointerConversionIT_EE5valueEvE4typeESM_, symObjAddr: 0x5810, symBinAddr: 0x100012690, symSize: 0x70 }
  - { offsetInCU: 0x122EE, offset: 0x46259, size: 0x8, addend: 0x0, symName: __ZNSt3__116allocator_traitsINS_9allocatorIPNS_16__hash_node_baseIPNS_11__hash_nodeINS_12basic_stringIcNS_11char_traitsIcEENS1_IcEEEEPvEEEEEEE8allocateB7v160006ERSE_m, symObjAddr: 0x5880, symBinAddr: 0x100012700, symSize: 0x30 }
  - { offsetInCU: 0x12320, offset: 0x4628B, size: 0x8, addend: 0x0, symName: __ZNSt3__19allocatorIPNS_16__hash_node_baseIPNS_11__hash_nodeINS_12basic_stringIcNS_11char_traitsIcEENS0_IcEEEEPvEEEEE8allocateB7v160006Em, symObjAddr: 0x5A20, symBinAddr: 0x100012730, symSize: 0x50 }
  - { offsetInCU: 0x1235C, offset: 0x462C7, size: 0x8, addend: 0x0, symName: __ZNSt3__116allocator_traitsINS_9allocatorIPNS_16__hash_node_baseIPNS_11__hash_nodeINS_12basic_stringIcNS_11char_traitsIcEENS1_IcEEEEPvEEEEEEE8max_sizeB7v160006ISE_vvEEmRKSE_, symObjAddr: 0x5A70, symBinAddr: 0x100012780, symSize: 0x20 }
  - { offsetInCU: 0x12387, offset: 0x462F2, size: 0x8, addend: 0x0, symName: __ZNKSt3__117__compressed_pairIPNS_11__hash_nodeINS_12basic_stringIcNS_11char_traitsIcEENS_9allocatorIcEEEEPvEENS_22__hash_node_destructorINS5_IS9_EEEEE5firstB7v160006Ev, symObjAddr: 0x5B30, symBinAddr: 0x1000127C0, symSize: 0x20 }
  - { offsetInCU: 0x123AB, offset: 0x46316, size: 0x8, addend: 0x0, symName: __ZNKSt3__122__compressed_pair_elemIPNS_11__hash_nodeINS_12basic_stringIcNS_11char_traitsIcEENS_9allocatorIcEEEEPvEELi0ELb0EE5__getB7v160006Ev, symObjAddr: 0x5B50, symBinAddr: 0x1000127E0, symSize: 0x10 }
  - { offsetInCU: 0x123CF, offset: 0x4633A, size: 0x8, addend: 0x0, symName: __ZNSt3__117__compressed_pairIPNS_11__hash_nodeINS_12basic_stringIcNS_11char_traitsIcEENS_9allocatorIcEEEEPvEENS_22__hash_node_destructorINS5_IS9_EEEEE5firstB7v160006Ev, symObjAddr: 0x5B60, symBinAddr: 0x1000127F0, symSize: 0x20 }
  - { offsetInCU: 0x123F3, offset: 0x4635E, size: 0x8, addend: 0x0, symName: __ZNSt3__122__compressed_pair_elemIPNS_11__hash_nodeINS_12basic_stringIcNS_11char_traitsIcEENS_9allocatorIcEEEEPvEELi0ELb0EE5__getB7v160006Ev, symObjAddr: 0x5B80, symBinAddr: 0x100012810, symSize: 0x10 }
  - { offsetInCU: 0x12417, offset: 0x46382, size: 0x8, addend: 0x0, symName: __ZNSt3__110unique_ptrINS_11__hash_nodeINS_12basic_stringIcNS_11char_traitsIcEENS_9allocatorIcEEEEPvEENS_22__hash_node_destructorINS5_IS9_EEEEED2B7v160006Ev, symObjAddr: 0x5B90, symBinAddr: 0x100012820, symSize: 0x20 }
  - { offsetInCU: 0x1243F, offset: 0x463AA, size: 0x8, addend: 0x0, symName: __ZNSt3__110unique_ptrINS_11__hash_nodeINS_12basic_stringIcNS_11char_traitsIcEENS_9allocatorIcEEEEPvEENS_22__hash_node_destructorINS5_IS9_EEEEE5resetB7v160006EPS9_, symObjAddr: 0x5BB0, symBinAddr: 0x100012840, symSize: 0x70 }
  - { offsetInCU: 0x12481, offset: 0x463EC, size: 0x8, addend: 0x0, symName: __ZNSt3__122__hash_node_destructorINS_9allocatorINS_11__hash_nodeINS_12basic_stringIcNS_11char_traitsIcEENS1_IcEEEEPvEEEEEclB7v160006EPS9_, symObjAddr: 0x5C20, symBinAddr: 0x1000128B0, symSize: 0x80 }
  - { offsetInCU: 0x124B4, offset: 0x4641F, size: 0x8, addend: 0x0, symName: __ZNSt3__115__hash_iteratorIPNS_11__hash_nodeINS_12basic_stringIcNS_11char_traitsIcEENS_9allocatorIcEEEEPvEEEC2B7v160006EPNS_16__hash_node_baseISA_EEPKv, symObjAddr: 0x5D80, symBinAddr: 0x100012930, symSize: 0x20 }
  - { offsetInCU: 0x124FA, offset: 0x46465, size: 0x8, addend: 0x0, symName: __ZNSt3__14pairINS_15__hash_iteratorIPNS_11__hash_nodeINS_12basic_stringIcNS_11char_traitsIcEENS_9allocatorIcEEEEPvEEEEbEC2B7v160006ISC_RbLS9_0EEEOT_OT0_, symObjAddr: 0x5DA0, symBinAddr: 0x100012950, symSize: 0x30 }
  - { offsetInCU: 0x12557, offset: 0x464C2, size: 0x8, addend: 0x0, symName: __ZNSt3__14pairINS_21__hash_const_iteratorIPNS_11__hash_nodeINS_12basic_stringIcNS_11char_traitsIcEENS_9allocatorIcEEEEPvEEEEbEC2B7v160006INS_15__hash_iteratorISB_EEbLS9_0EEEONS0_IT_T0_EE, symObjAddr: 0x5DD0, symBinAddr: 0x100012980, symSize: 0x40 }
  - { offsetInCU: 0x125A7, offset: 0x46512, size: 0x8, addend: 0x0, symName: __ZNSt3__121__hash_const_iteratorIPNS_11__hash_nodeINS_12basic_stringIcNS_11char_traitsIcEENS_9allocatorIcEEEEPvEEEC1B7v160006ERKNS_15__hash_iteratorISA_EE, symObjAddr: 0x5E10, symBinAddr: 0x1000129C0, symSize: 0x30 }
  - { offsetInCU: 0x125DE, offset: 0x46549, size: 0x8, addend: 0x0, symName: __ZNSt3__121__hash_const_iteratorIPNS_11__hash_nodeINS_12basic_stringIcNS_11char_traitsIcEENS_9allocatorIcEEEEPvEEEC2B7v160006ERKNS_15__hash_iteratorISA_EE, symObjAddr: 0x5E40, symBinAddr: 0x1000129F0, symSize: 0x20 }
  - { offsetInCU: 0x12615, offset: 0x46580, size: 0x8, addend: 0x0, symName: __ZNSt3__113unordered_setINS_12basic_stringIcNS_11char_traitsIcEENS_9allocatorIcEEEENS_4hashIS6_EENS_8equal_toIS6_EENS4_IS6_EEEC2B7v160006Ev, symObjAddr: 0x5E60, symBinAddr: 0x100012A10, symSize: 0x40 }
  - { offsetInCU: 0x1263D, offset: 0x465A8, size: 0x8, addend: 0x0, symName: __ZNSt3__112__hash_tableINS_12basic_stringIcNS_11char_traitsIcEENS_9allocatorIcEEEENS_4hashIS6_EENS_8equal_toIS6_EENS4_IS6_EEEC1Ev, symObjAddr: 0x5EA0, symBinAddr: 0x100012A50, symSize: 0x20 }
  - { offsetInCU: 0x12667, offset: 0x465D2, size: 0x8, addend: 0x0, symName: __ZNSt3__112__hash_tableINS_12basic_stringIcNS_11char_traitsIcEENS_9allocatorIcEEEENS_4hashIS6_EENS_8equal_toIS6_EENS4_IS6_EEEC2Ev, symObjAddr: 0x5ED0, symBinAddr: 0x100012A80, symSize: 0x80 }
  - { offsetInCU: 0x12691, offset: 0x465FC, size: 0x8, addend: 0x0, symName: __ZNSt3__110unique_ptrIA_PNS_16__hash_node_baseIPNS_11__hash_nodeINS_12basic_stringIcNS_11char_traitsIcEENS_9allocatorIcEEEEPvEEEENS_25__bucket_list_deallocatorINS6_ISD_EEEEEC1B7v160006ILb1EvEEv, symObjAddr: 0x5F50, symBinAddr: 0x100012B00, symSize: 0x20 }
  - { offsetInCU: 0x126C4, offset: 0x4662F, size: 0x8, addend: 0x0, symName: __ZNSt3__117__compressed_pairINS_16__hash_node_baseIPNS_11__hash_nodeINS_12basic_stringIcNS_11char_traitsIcEENS_9allocatorIcEEEEPvEEEENS6_ISA_EEEC1B7v160006ILb1EvEEv, symObjAddr: 0x5F70, symBinAddr: 0x100012B20, symSize: 0x20 }
  - { offsetInCU: 0x12701, offset: 0x4666C, size: 0x8, addend: 0x0, symName: __ZNSt3__117__compressed_pairImNS_4hashINS_12basic_stringIcNS_11char_traitsIcEENS_9allocatorIcEEEEEEEC1B7v160006IiNS_18__default_init_tagEEEOT_OT0_, symObjAddr: 0x5F90, symBinAddr: 0x100012B40, symSize: 0x30 }
  - { offsetInCU: 0x1275C, offset: 0x466C7, size: 0x8, addend: 0x0, symName: __ZNSt3__117__compressed_pairIfNS_8equal_toINS_12basic_stringIcNS_11char_traitsIcEENS_9allocatorIcEEEEEEEC1B7v160006IfNS_18__default_init_tagEEEOT_OT0_, symObjAddr: 0x5FC0, symBinAddr: 0x100012B70, symSize: 0x30 }
  - { offsetInCU: 0x127B2, offset: 0x4671D, size: 0x8, addend: 0x0, symName: __ZNSt3__110unique_ptrIA_PNS_16__hash_node_baseIPNS_11__hash_nodeINS_12basic_stringIcNS_11char_traitsIcEENS_9allocatorIcEEEEPvEEEENS_25__bucket_list_deallocatorINS6_ISD_EEEEEC2B7v160006ILb1EvEEv, symObjAddr: 0x5FF0, symBinAddr: 0x100012BA0, symSize: 0x30 }
  - { offsetInCU: 0x127EA, offset: 0x46755, size: 0x8, addend: 0x0, symName: __ZNSt3__117__compressed_pairIPPNS_16__hash_node_baseIPNS_11__hash_nodeINS_12basic_stringIcNS_11char_traitsIcEENS_9allocatorIcEEEEPvEEEENS_25__bucket_list_deallocatorINS6_ISD_EEEEEC1B7v160006INS_16__value_init_tagESK_EEOT_OT0_, symObjAddr: 0x6020, symBinAddr: 0x100012BD0, symSize: 0x30 }
  - { offsetInCU: 0x12840, offset: 0x467AB, size: 0x8, addend: 0x0, symName: __ZNSt3__117__compressed_pairIPPNS_16__hash_node_baseIPNS_11__hash_nodeINS_12basic_stringIcNS_11char_traitsIcEENS_9allocatorIcEEEEPvEEEENS_25__bucket_list_deallocatorINS6_ISD_EEEEEC2B7v160006INS_16__value_init_tagESK_EEOT_OT0_, symObjAddr: 0x6050, symBinAddr: 0x100012C00, symSize: 0x40 }
  - { offsetInCU: 0x12896, offset: 0x46801, size: 0x8, addend: 0x0, symName: __ZNSt3__122__compressed_pair_elemIPPNS_16__hash_node_baseIPNS_11__hash_nodeINS_12basic_stringIcNS_11char_traitsIcEENS_9allocatorIcEEEEPvEEEELi0ELb0EEC2B7v160006ENS_16__value_init_tagE, symObjAddr: 0x6090, symBinAddr: 0x100012C40, symSize: 0x20 }
  - { offsetInCU: 0x128C8, offset: 0x46833, size: 0x8, addend: 0x0, symName: __ZNSt3__122__compressed_pair_elemINS_25__bucket_list_deallocatorINS_9allocatorIPNS_16__hash_node_baseIPNS_11__hash_nodeINS_12basic_stringIcNS_11char_traitsIcEENS2_IcEEEEPvEEEEEEEELi1ELb0EEC2B7v160006ENS_16__value_init_tagE, symObjAddr: 0x60B0, symBinAddr: 0x100012C60, symSize: 0x20 }
  - { offsetInCU: 0x128FA, offset: 0x46865, size: 0x8, addend: 0x0, symName: __ZNSt3__125__bucket_list_deallocatorINS_9allocatorIPNS_16__hash_node_baseIPNS_11__hash_nodeINS_12basic_stringIcNS_11char_traitsIcEENS1_IcEEEEPvEEEEEEEC1B7v160006Ev, symObjAddr: 0x60D0, symBinAddr: 0x100012C80, symSize: 0x20 }
  - { offsetInCU: 0x12922, offset: 0x4688D, size: 0x8, addend: 0x0, symName: __ZNSt3__125__bucket_list_deallocatorINS_9allocatorIPNS_16__hash_node_baseIPNS_11__hash_nodeINS_12basic_stringIcNS_11char_traitsIcEENS1_IcEEEEPvEEEEEEEC2B7v160006Ev, symObjAddr: 0x60F0, symBinAddr: 0x100012CA0, symSize: 0x40 }
  - { offsetInCU: 0x1294A, offset: 0x468B5, size: 0x8, addend: 0x0, symName: __ZNSt3__117__compressed_pairImNS_9allocatorIPNS_16__hash_node_baseIPNS_11__hash_nodeINS_12basic_stringIcNS_11char_traitsIcEENS1_IcEEEEPvEEEEEEEC1B7v160006IiNS_18__default_init_tagEEEOT_OT0_, symObjAddr: 0x6130, symBinAddr: 0x100012CE0, symSize: 0x30 }
  - { offsetInCU: 0x129A0, offset: 0x4690B, size: 0x8, addend: 0x0, symName: __ZNSt3__117__compressed_pairImNS_9allocatorIPNS_16__hash_node_baseIPNS_11__hash_nodeINS_12basic_stringIcNS_11char_traitsIcEENS1_IcEEEEPvEEEEEEEC2B7v160006IiNS_18__default_init_tagEEEOT_OT0_, symObjAddr: 0x6160, symBinAddr: 0x100012D10, symSize: 0x40 }
  - { offsetInCU: 0x129F6, offset: 0x46961, size: 0x8, addend: 0x0, symName: __ZNSt3__122__compressed_pair_elemINS_9allocatorIPNS_16__hash_node_baseIPNS_11__hash_nodeINS_12basic_stringIcNS_11char_traitsIcEENS1_IcEEEEPvEEEEEELi1ELb1EEC2B7v160006ENS_18__default_init_tagE, symObjAddr: 0x61C0, symBinAddr: 0x100012D50, symSize: 0x20 }
  - { offsetInCU: 0x12A28, offset: 0x46993, size: 0x8, addend: 0x0, symName: __ZNSt3__19allocatorIPNS_16__hash_node_baseIPNS_11__hash_nodeINS_12basic_stringIcNS_11char_traitsIcEENS0_IcEEEEPvEEEEEC2B7v160006Ev, symObjAddr: 0x61E0, symBinAddr: 0x100012D70, symSize: 0x20 }
  - { offsetInCU: 0x12A50, offset: 0x469BB, size: 0x8, addend: 0x0, symName: __ZNSt3__116__non_trivial_ifILb1ENS_9allocatorIPNS_16__hash_node_baseIPNS_11__hash_nodeINS_12basic_stringIcNS_11char_traitsIcEENS1_IcEEEEPvEEEEEEEC2B7v160006Ev, symObjAddr: 0x6200, symBinAddr: 0x100012D90, symSize: 0x10 }
  - { offsetInCU: 0x12A78, offset: 0x469E3, size: 0x8, addend: 0x0, symName: __ZNSt3__117__compressed_pairINS_16__hash_node_baseIPNS_11__hash_nodeINS_12basic_stringIcNS_11char_traitsIcEENS_9allocatorIcEEEEPvEEEENS6_ISA_EEEC2B7v160006ILb1EvEEv, symObjAddr: 0x6210, symBinAddr: 0x100012DA0, symSize: 0x30 }
  - { offsetInCU: 0x12AAB, offset: 0x46A16, size: 0x8, addend: 0x0, symName: __ZNSt3__122__compressed_pair_elemINS_16__hash_node_baseIPNS_11__hash_nodeINS_12basic_stringIcNS_11char_traitsIcEENS_9allocatorIcEEEEPvEEEELi0ELb0EEC2B7v160006ENS_16__value_init_tagE, symObjAddr: 0x6240, symBinAddr: 0x100012DD0, symSize: 0x20 }
  - { offsetInCU: 0x12ADD, offset: 0x46A48, size: 0x8, addend: 0x0, symName: __ZNSt3__122__compressed_pair_elemINS_9allocatorINS_11__hash_nodeINS_12basic_stringIcNS_11char_traitsIcEENS1_IcEEEEPvEEEELi1ELb1EEC2B7v160006ENS_16__value_init_tagE, symObjAddr: 0x6260, symBinAddr: 0x100012DF0, symSize: 0x20 }
  - { offsetInCU: 0x12B0F, offset: 0x46A7A, size: 0x8, addend: 0x0, symName: __ZNSt3__116__hash_node_baseIPNS_11__hash_nodeINS_12basic_stringIcNS_11char_traitsIcEENS_9allocatorIcEEEEPvEEEC1B7v160006Ev, symObjAddr: 0x6280, symBinAddr: 0x100012E10, symSize: 0x20 }
  - { offsetInCU: 0x12B37, offset: 0x46AA2, size: 0x8, addend: 0x0, symName: __ZNSt3__116__hash_node_baseIPNS_11__hash_nodeINS_12basic_stringIcNS_11char_traitsIcEENS_9allocatorIcEEEEPvEEEC2B7v160006Ev, symObjAddr: 0x62A0, symBinAddr: 0x100012E30, symSize: 0x20 }
  - { offsetInCU: 0x12B5F, offset: 0x46ACA, size: 0x8, addend: 0x0, symName: __ZNSt3__19allocatorINS_11__hash_nodeINS_12basic_stringIcNS_11char_traitsIcEENS0_IcEEEEPvEEEC2B7v160006Ev, symObjAddr: 0x62C0, symBinAddr: 0x100012E50, symSize: 0x20 }
  - { offsetInCU: 0x12B87, offset: 0x46AF2, size: 0x8, addend: 0x0, symName: __ZNSt3__116__non_trivial_ifILb1ENS_9allocatorINS_11__hash_nodeINS_12basic_stringIcNS_11char_traitsIcEENS1_IcEEEEPvEEEEEC2B7v160006Ev, symObjAddr: 0x62E0, symBinAddr: 0x100012E70, symSize: 0x10 }
  - { offsetInCU: 0x12BAF, offset: 0x46B1A, size: 0x8, addend: 0x0, symName: __ZNSt3__117__compressed_pairImNS_4hashINS_12basic_stringIcNS_11char_traitsIcEENS_9allocatorIcEEEEEEEC2B7v160006IiNS_18__default_init_tagEEEOT_OT0_, symObjAddr: 0x62F0, symBinAddr: 0x100012E80, symSize: 0x40 }
  - { offsetInCU: 0x12C05, offset: 0x46B70, size: 0x8, addend: 0x0, symName: __ZNSt3__122__compressed_pair_elemINS_4hashINS_12basic_stringIcNS_11char_traitsIcEENS_9allocatorIcEEEEEELi1ELb1EEC2B7v160006ENS_18__default_init_tagE, symObjAddr: 0x6330, symBinAddr: 0x100012EC0, symSize: 0x10 }
  - { offsetInCU: 0x12C37, offset: 0x46BA2, size: 0x8, addend: 0x0, symName: __ZNSt3__117__compressed_pairIfNS_8equal_toINS_12basic_stringIcNS_11char_traitsIcEENS_9allocatorIcEEEEEEEC2B7v160006IfNS_18__default_init_tagEEEOT_OT0_, symObjAddr: 0x6340, symBinAddr: 0x100012ED0, symSize: 0x40 }
  - { offsetInCU: 0x12C8D, offset: 0x46BF8, size: 0x8, addend: 0x0, symName: __ZNSt3__122__compressed_pair_elemIfLi0ELb0EEC2B7v160006IfvEEOT_, symObjAddr: 0x6380, symBinAddr: 0x100012F10, symSize: 0x20 }
  - { offsetInCU: 0x12CCD, offset: 0x46C38, size: 0x8, addend: 0x0, symName: __ZNSt3__122__compressed_pair_elemINS_8equal_toINS_12basic_stringIcNS_11char_traitsIcEENS_9allocatorIcEEEEEELi1ELb1EEC2B7v160006ENS_18__default_init_tagE, symObjAddr: 0x63A0, symBinAddr: 0x100012F30, symSize: 0x10 }
  - { offsetInCU: 0x12CFF, offset: 0x46C6A, size: 0x8, addend: 0x0, symName: __ZNSt3__15dequeINS_13unordered_setINS_12basic_stringIcNS_11char_traitsIcEENS_9allocatorIcEEEENS_4hashIS7_EENS_8equal_toIS7_EENS5_IS7_EEEENS5_ISD_EEE9push_backERKSD_, symObjAddr: 0x6590, symBinAddr: 0x100012F40, symSize: 0x90 }
  - { offsetInCU: 0x12D44, offset: 0x46CAF, size: 0x8, addend: 0x0, symName: __ZNKSt3__15dequeINS_13unordered_setINS_12basic_stringIcNS_11char_traitsIcEENS_9allocatorIcEEEENS_4hashIS7_EENS_8equal_toIS7_EENS5_IS7_EEEENS5_ISD_EEE12__back_spareB7v160006Ev, symObjAddr: 0x6640, symBinAddr: 0x100012FD0, symSize: 0x50 }
  - { offsetInCU: 0x12D68, offset: 0x46CD3, size: 0x8, addend: 0x0, symName: __ZNSt3__15dequeINS_13unordered_setINS_12basic_stringIcNS_11char_traitsIcEENS_9allocatorIcEEEENS_4hashIS7_EENS_8equal_toIS7_EENS5_IS7_EEEENS5_ISD_EEE19__add_back_capacityEv, symObjAddr: 0x6690, symBinAddr: 0x100013020, symSize: 0x380 }
  - { offsetInCU: 0x12E1D, offset: 0x46D88, size: 0x8, addend: 0x0, symName: __ZNSt3__116allocator_traitsINS_9allocatorINS_13unordered_setINS_12basic_stringIcNS_11char_traitsIcEENS1_IcEEEENS_4hashIS7_EENS_8equal_toIS7_EENS1_IS7_EEEEEEE9constructB7v160006ISD_JRKSD_EvvEEvRSE_PT_DpOT0_, symObjAddr: 0x6A10, symBinAddr: 0x1000133A0, symSize: 0x30 }
  - { offsetInCU: 0x12E71, offset: 0x46DDC, size: 0x8, addend: 0x0, symName: __ZNKSt3__15dequeINS_13unordered_setINS_12basic_stringIcNS_11char_traitsIcEENS_9allocatorIcEEEENS_4hashIS7_EENS_8equal_toIS7_EENS5_IS7_EEEENS5_ISD_EEE10__capacityB7v160006Ev, symObjAddr: 0x6B90, symBinAddr: 0x1000133D0, symSize: 0x50 }
  - { offsetInCU: 0x12E95, offset: 0x46E00, size: 0x8, addend: 0x0, symName: __ZNKSt3__15dequeINS_13unordered_setINS_12basic_stringIcNS_11char_traitsIcEENS_9allocatorIcEEEENS_4hashIS7_EENS_8equal_toIS7_EENS5_IS7_EEEENS5_ISD_EEE13__front_spareB7v160006Ev, symObjAddr: 0x6C00, symBinAddr: 0x100013420, symSize: 0x20 }
  - { offsetInCU: 0x12EB9, offset: 0x46E24, size: 0x8, addend: 0x0, symName: __ZNSt3__114__split_bufferIPNS_13unordered_setINS_12basic_stringIcNS_11char_traitsIcEENS_9allocatorIcEEEENS_4hashIS7_EENS_8equal_toIS7_EENS5_IS7_EEEENS5_ISE_EEE9push_backB7v160006ERKSE_, symObjAddr: 0x6C70, symBinAddr: 0x100013440, symSize: 0x290 }
  - { offsetInCU: 0x12F31, offset: 0x46E9C, size: 0x8, addend: 0x0, symName: __ZNKSt3__114__split_bufferIPNS_13unordered_setINS_12basic_stringIcNS_11char_traitsIcEENS_9allocatorIcEEEENS_4hashIS7_EENS_8equal_toIS7_EENS5_IS7_EEEENS5_ISE_EEE12__back_spareB7v160006Ev, symObjAddr: 0x6F30, symBinAddr: 0x1000136D0, symSize: 0x40 }
  - { offsetInCU: 0x12F55, offset: 0x46EC0, size: 0x8, addend: 0x0, symName: __ZNSt3__114__split_bufferIPNS_13unordered_setINS_12basic_stringIcNS_11char_traitsIcEENS_9allocatorIcEEEENS_4hashIS7_EENS_8equal_toIS7_EENS5_IS7_EEEENS5_ISE_EEE9push_backEOSE_, symObjAddr: 0x6F70, symBinAddr: 0x100013710, symSize: 0x290 }
  - { offsetInCU: 0x12FCD, offset: 0x46F38, size: 0x8, addend: 0x0, symName: __ZNSt3__116allocator_traitsINS_9allocatorINS_13unordered_setINS_12basic_stringIcNS_11char_traitsIcEENS1_IcEEEENS_4hashIS7_EENS_8equal_toIS7_EENS1_IS7_EEEEEEE8allocateB7v160006ERSE_m, symObjAddr: 0x7200, symBinAddr: 0x1000139A0, symSize: 0x30 }
  - { offsetInCU: 0x12FFF, offset: 0x46F6A, size: 0x8, addend: 0x0, symName: __ZNSt3__114__split_bufferIPNS_13unordered_setINS_12basic_stringIcNS_11char_traitsIcEENS_9allocatorIcEEEENS_4hashIS7_EENS_8equal_toIS7_EENS5_IS7_EEEENS5_ISE_EEE10push_frontEOSE_, symObjAddr: 0x7230, symBinAddr: 0x1000139D0, symSize: 0x270 }
  - { offsetInCU: 0x13077, offset: 0x46FE2, size: 0x8, addend: 0x0, symName: __ZNSt3__114__split_bufferIPNS_13unordered_setINS_12basic_stringIcNS_11char_traitsIcEENS_9allocatorIcEEEENS_4hashIS7_EENS_8equal_toIS7_EENS5_IS7_EEEERNS5_ISE_EEEC1EmmSG_, symObjAddr: 0x74C0, symBinAddr: 0x100013C40, symSize: 0x40 }
  - { offsetInCU: 0x130D0, offset: 0x4703B, size: 0x8, addend: 0x0, symName: __ZNSt3__122__allocator_destructorINS_9allocatorINS_13unordered_setINS_12basic_stringIcNS_11char_traitsIcEENS1_IcEEEENS_4hashIS7_EENS_8equal_toIS7_EENS1_IS7_EEEEEEEC1B7v160006ERSE_m, symObjAddr: 0x7500, symBinAddr: 0x100013C80, symSize: 0x30 }
  - { offsetInCU: 0x13196, offset: 0x47101, size: 0x8, addend: 0x0, symName: __ZNSt3__110unique_ptrIPNS_13unordered_setINS_12basic_stringIcNS_11char_traitsIcEENS_9allocatorIcEEEENS_4hashIS7_EENS_8equal_toIS7_EENS5_IS7_EEEENS_22__allocator_destructorINS5_ISD_EEEEEC1B7v160006ILb1EvEESE_NS_16__dependent_typeINS_27__unique_ptr_deleter_sfinaeISH_EEXT_EE20__good_rval_ref_typeE, symObjAddr: 0x7530, symBinAddr: 0x100013CB0, symSize: 0x30 }
  - { offsetInCU: 0x131E5, offset: 0x47150, size: 0x8, addend: 0x0, symName: __ZNSt3__114__split_bufferIPNS_13unordered_setINS_12basic_stringIcNS_11char_traitsIcEENS_9allocatorIcEEEENS_4hashIS7_EENS_8equal_toIS7_EENS5_IS7_EEEERNS5_ISE_EEE9push_backEOSE_, symObjAddr: 0x7560, symBinAddr: 0x100013CE0, symSize: 0x290 }
  - { offsetInCU: 0x1325D, offset: 0x471C8, size: 0x8, addend: 0x0, symName: __ZNKSt3__110unique_ptrIPNS_13unordered_setINS_12basic_stringIcNS_11char_traitsIcEENS_9allocatorIcEEEENS_4hashIS7_EENS_8equal_toIS7_EENS5_IS7_EEEENS_22__allocator_destructorINS5_ISD_EEEEE3getB7v160006Ev, symObjAddr: 0x77F0, symBinAddr: 0x100013F70, symSize: 0x20 }
  - { offsetInCU: 0x13281, offset: 0x471EC, size: 0x8, addend: 0x0, symName: __ZNSt3__110unique_ptrIPNS_13unordered_setINS_12basic_stringIcNS_11char_traitsIcEENS_9allocatorIcEEEENS_4hashIS7_EENS_8equal_toIS7_EENS5_IS7_EEEENS_22__allocator_destructorINS5_ISD_EEEEE7releaseB7v160006Ev, symObjAddr: 0x7810, symBinAddr: 0x100013F90, symSize: 0x40 }
  - { offsetInCU: 0x132B4, offset: 0x4721F, size: 0x8, addend: 0x0, symName: __ZNSt3__114__split_bufferIPNS_13unordered_setINS_12basic_stringIcNS_11char_traitsIcEENS_9allocatorIcEEEENS_4hashIS7_EENS_8equal_toIS7_EENS5_IS7_EEEERNS5_ISE_EEE10push_frontERKSE_, symObjAddr: 0x7870, symBinAddr: 0x100013FD0, symSize: 0x270 }
  - { offsetInCU: 0x1332C, offset: 0x47297, size: 0x8, addend: 0x0, symName: __ZNSt3__114__split_bufferIPNS_13unordered_setINS_12basic_stringIcNS_11char_traitsIcEENS_9allocatorIcEEEENS_4hashIS7_EENS_8equal_toIS7_EENS5_IS7_EEEENS5_ISE_EEE9__end_capB7v160006Ev, symObjAddr: 0x7B20, symBinAddr: 0x100014280, symSize: 0x20 }
  - { offsetInCU: 0x13350, offset: 0x472BB, size: 0x8, addend: 0x0, symName: __ZNSt3__114__split_bufferIPNS_13unordered_setINS_12basic_stringIcNS_11char_traitsIcEENS_9allocatorIcEEEENS_4hashIS7_EENS_8equal_toIS7_EENS5_IS7_EEEERNS5_ISE_EEE9__end_capB7v160006Ev, symObjAddr: 0x7B40, symBinAddr: 0x1000142A0, symSize: 0x20 }
  - { offsetInCU: 0x13374, offset: 0x472DF, size: 0x8, addend: 0x0, symName: __ZNSt3__110unique_ptrIPNS_13unordered_setINS_12basic_stringIcNS_11char_traitsIcEENS_9allocatorIcEEEENS_4hashIS7_EENS_8equal_toIS7_EENS5_IS7_EEEENS_22__allocator_destructorINS5_ISD_EEEEED1B7v160006Ev, symObjAddr: 0x7B60, symBinAddr: 0x1000142C0, symSize: 0x20 }
  - { offsetInCU: 0x1339C, offset: 0x47307, size: 0x8, addend: 0x0, symName: __ZNSt3__114__split_bufferIPNS_13unordered_setINS_12basic_stringIcNS_11char_traitsIcEENS_9allocatorIcEEEENS_4hashIS7_EENS_8equal_toIS7_EENS5_IS7_EEEERNS5_ISE_EEED1Ev, symObjAddr: 0x7B80, symBinAddr: 0x1000142E0, symSize: 0x20 }
  - { offsetInCU: 0x133C6, offset: 0x47331, size: 0x8, addend: 0x0, symName: __ZNSt3__114__split_bufferIPNS_13unordered_setINS_12basic_stringIcNS_11char_traitsIcEENS_9allocatorIcEEEENS_4hashIS7_EENS_8equal_toIS7_EENS5_IS7_EEEERNS5_ISE_EEE18__construct_at_endINS_13move_iteratorIPSE_EEEENS_9enable_ifIXsr27__is_cpp17_forward_iteratorIT_EE5valueEvE4typeESN_SN_, symObjAddr: 0x7C30, symBinAddr: 0x100014340, symSize: 0x100 }
  - { offsetInCU: 0x13421, offset: 0x4738C, size: 0x8, addend: 0x0, symName: __ZNSt3__113move_iteratorIPPNS_13unordered_setINS_12basic_stringIcNS_11char_traitsIcEENS_9allocatorIcEEEENS_4hashIS7_EENS_8equal_toIS7_EENS5_IS7_EEEEEC1B7v160006ESF_, symObjAddr: 0x7D30, symBinAddr: 0x100014440, symSize: 0x30 }
  - { offsetInCU: 0x13457, offset: 0x473C2, size: 0x8, addend: 0x0, symName: __ZNSt3__116allocator_traitsINS_9allocatorIPNS_13unordered_setINS_12basic_stringIcNS_11char_traitsIcEENS1_IcEEEENS_4hashIS7_EENS_8equal_toIS7_EENS1_IS7_EEEEEEE9constructB7v160006ISE_JRKSE_EvvEEvRSF_PT_DpOT0_, symObjAddr: 0x7D60, symBinAddr: 0x100014470, symSize: 0x30 }
  - { offsetInCU: 0x134CE, offset: 0x47439, size: 0x8, addend: 0x0, symName: __ZNKSt3__114__move_trivialclB7v160006IPNS_13unordered_setINS_12basic_stringIcNS_11char_traitsIcEENS_9allocatorIcEEEENS_4hashIS8_EENS_8equal_toIS8_EENS6_IS8_EEEESF_Li0EEENS_4pairIPT_PT0_EESI_SI_SK_, symObjAddr: 0x7F10, symBinAddr: 0x100014610, symSize: 0x40 }
  - { offsetInCU: 0x13534, offset: 0x4749F, size: 0x8, addend: 0x0, symName: __ZNSt3__119__unwrap_range_implIPPNS_13unordered_setINS_12basic_stringIcNS_11char_traitsIcEENS_9allocatorIcEEEENS_4hashIS7_EENS_8equal_toIS7_EENS5_IS7_EEEESF_E8__unwrapB7v160006ESF_SF_, symObjAddr: 0x8010, symBinAddr: 0x100014710, symSize: 0x50 }
  - { offsetInCU: 0x13569, offset: 0x474D4, size: 0x8, addend: 0x0, symName: __ZNSt3__14pairIPPNS_13unordered_setINS_12basic_stringIcNS_11char_traitsIcEENS_9allocatorIcEEEENS_4hashIS7_EENS_8equal_toIS7_EENS5_IS7_EEEESF_EC1B7v160006ISF_SF_LPv0EEEOT_OT0_, symObjAddr: 0x8060, symBinAddr: 0x100014760, symSize: 0x30 }
  - { offsetInCU: 0x135C6, offset: 0x47531, size: 0x8, addend: 0x0, symName: __ZNSt3__14pairIPPNS_13unordered_setINS_12basic_stringIcNS_11char_traitsIcEENS_9allocatorIcEEEENS_4hashIS7_EENS_8equal_toIS7_EENS5_IS7_EEEESF_EC2B7v160006ISF_SF_LPv0EEEOT_OT0_, symObjAddr: 0x8090, symBinAddr: 0x100014790, symSize: 0x30 }
  - { offsetInCU: 0x13623, offset: 0x4758E, size: 0x8, addend: 0x0, symName: __ZNSt3__14pairIPPNS_13unordered_setINS_12basic_stringIcNS_11char_traitsIcEENS_9allocatorIcEEEENS_4hashIS7_EENS_8equal_toIS7_EENS5_IS7_EEEESF_EC1B7v160006IRSF_SF_LPv0EEEOT_OT0_, symObjAddr: 0x8160, symBinAddr: 0x100014860, symSize: 0x30 }
  - { offsetInCU: 0x13680, offset: 0x475EB, size: 0x8, addend: 0x0, symName: __ZNSt3__14pairIPPNS_13unordered_setINS_12basic_stringIcNS_11char_traitsIcEENS_9allocatorIcEEEENS_4hashIS7_EENS_8equal_toIS7_EENS5_IS7_EEEESF_EC2B7v160006IRSF_SF_LPv0EEEOT_OT0_, symObjAddr: 0x8190, symBinAddr: 0x100014890, symSize: 0x30 }
  - { offsetInCU: 0x136DD, offset: 0x47648, size: 0x8, addend: 0x0, symName: __ZNSt3__118__unwrap_iter_implIPPNS_13unordered_setINS_12basic_stringIcNS_11char_traitsIcEENS_9allocatorIcEEEENS_4hashIS7_EENS_8equal_toIS7_EENS5_IS7_EEEELb1EE8__unwrapB7v160006ESF_, symObjAddr: 0x81C0, symBinAddr: 0x1000148C0, symSize: 0x20 }
  - { offsetInCU: 0x136FF, offset: 0x4766A, size: 0x8, addend: 0x0, symName: __ZNSt3__119__unwrap_range_implIPPNS_13unordered_setINS_12basic_stringIcNS_11char_traitsIcEENS_9allocatorIcEEEENS_4hashIS7_EENS_8equal_toIS7_EENS5_IS7_EEEESF_E8__rewrapB7v160006ESF_SF_, symObjAddr: 0x81E0, symBinAddr: 0x1000148E0, symSize: 0x30 }
  - { offsetInCU: 0x1372F, offset: 0x4769A, size: 0x8, addend: 0x0, symName: __ZNSt3__118__unwrap_iter_implIPPNS_13unordered_setINS_12basic_stringIcNS_11char_traitsIcEENS_9allocatorIcEEEENS_4hashIS7_EENS_8equal_toIS7_EENS5_IS7_EEEELb1EE8__rewrapB7v160006ESF_SF_, symObjAddr: 0x8210, symBinAddr: 0x100014910, symSize: 0x50 }
  - { offsetInCU: 0x13769, offset: 0x476D4, size: 0x8, addend: 0x0, symName: __ZNSt3__114__split_bufferIPNS_13unordered_setINS_12basic_stringIcNS_11char_traitsIcEENS_9allocatorIcEEEENS_4hashIS7_EENS_8equal_toIS7_EENS5_IS7_EEEERNS5_ISE_EEE21_ConstructTransactionC1B7v160006EPPSE_m, symObjAddr: 0x82A0, symBinAddr: 0x1000149A0, symSize: 0x30 }
  - { offsetInCU: 0x137B2, offset: 0x4771D, size: 0x8, addend: 0x0, symName: __ZNSt3__116allocator_traitsINS_9allocatorIPNS_13unordered_setINS_12basic_stringIcNS_11char_traitsIcEENS1_IcEEEENS_4hashIS7_EENS_8equal_toIS7_EENS1_IS7_EEEEEEE9constructB7v160006ISE_JSE_EvvEEvRSF_PT_DpOT0_, symObjAddr: 0x82D0, symBinAddr: 0x1000149D0, symSize: 0x30 }
  - { offsetInCU: 0x13806, offset: 0x47771, size: 0x8, addend: 0x0, symName: __ZNSt3__114__split_bufferIPNS_13unordered_setINS_12basic_stringIcNS_11char_traitsIcEENS_9allocatorIcEEEENS_4hashIS7_EENS_8equal_toIS7_EENS5_IS7_EEEERNS5_ISE_EEE7__allocB7v160006Ev, symObjAddr: 0x8300, symBinAddr: 0x100014A00, symSize: 0x20 }
  - { offsetInCU: 0x1382A, offset: 0x47795, size: 0x8, addend: 0x0, symName: __ZNKSt3__113move_iteratorIPPNS_13unordered_setINS_12basic_stringIcNS_11char_traitsIcEENS_9allocatorIcEEEENS_4hashIS7_EENS_8equal_toIS7_EENS5_IS7_EEEEEdeB7v160006Ev, symObjAddr: 0x8320, symBinAddr: 0x100014A20, symSize: 0x30 }
  - { offsetInCU: 0x1384E, offset: 0x477B9, size: 0x8, addend: 0x0, symName: __ZNSt3__113move_iteratorIPPNS_13unordered_setINS_12basic_stringIcNS_11char_traitsIcEENS_9allocatorIcEEEENS_4hashIS7_EENS_8equal_toIS7_EENS5_IS7_EEEEEppB7v160006Ev, symObjAddr: 0x8350, symBinAddr: 0x100014A50, symSize: 0x20 }
  - { offsetInCU: 0x13872, offset: 0x477DD, size: 0x8, addend: 0x0, symName: __ZNSt3__114__split_bufferIPNS_13unordered_setINS_12basic_stringIcNS_11char_traitsIcEENS_9allocatorIcEEEENS_4hashIS7_EENS_8equal_toIS7_EENS5_IS7_EEEERNS5_ISE_EEE21_ConstructTransactionD1B7v160006Ev, symObjAddr: 0x8370, symBinAddr: 0x100014A70, symSize: 0x20 }
  - { offsetInCU: 0x1389A, offset: 0x47805, size: 0x8, addend: 0x0, symName: __ZNKRSt3__113move_iteratorIPPNS_13unordered_setINS_12basic_stringIcNS_11char_traitsIcEENS_9allocatorIcEEEENS_4hashIS7_EENS_8equal_toIS7_EENS5_IS7_EEEEE4baseB7v160006Ev, symObjAddr: 0x8400, symBinAddr: 0x100014B00, symSize: 0x10 }
  - { offsetInCU: 0x138BE, offset: 0x47829, size: 0x8, addend: 0x0, symName: __ZNSt3__114__split_bufferIPNS_13unordered_setINS_12basic_stringIcNS_11char_traitsIcEENS_9allocatorIcEEEENS_4hashIS7_EENS_8equal_toIS7_EENS5_IS7_EEEERNS5_ISE_EEE21_ConstructTransactionC2B7v160006EPPSE_m, symObjAddr: 0x8410, symBinAddr: 0x100014B10, symSize: 0x40 }
  - { offsetInCU: 0x13902, offset: 0x4786D, size: 0x8, addend: 0x0, symName: __ZNSt3__117__compressed_pairIPPNS_13unordered_setINS_12basic_stringIcNS_11char_traitsIcEENS_9allocatorIcEEEENS_4hashIS7_EENS_8equal_toIS7_EENS5_IS7_EEEERNS5_ISE_EEE6secondB7v160006Ev, symObjAddr: 0x8480, symBinAddr: 0x100014B80, symSize: 0x20 }
  - { offsetInCU: 0x13926, offset: 0x47891, size: 0x8, addend: 0x0, symName: __ZNSt3__122__compressed_pair_elemIRNS_9allocatorIPNS_13unordered_setINS_12basic_stringIcNS_11char_traitsIcEENS1_IcEEEENS_4hashIS7_EENS_8equal_toIS7_EENS1_IS7_EEEEEELi1ELb0EE5__getB7v160006Ev, symObjAddr: 0x84A0, symBinAddr: 0x100014BA0, symSize: 0x20 }
  - { offsetInCU: 0x1394F, offset: 0x478BA, size: 0x8, addend: 0x0, symName: __ZNKSt3__16ranges11__iter_move4__fnclB7v160006IRKPPNS_13unordered_setINS_12basic_stringIcNS_11char_traitsIcEENS_9allocatorIcEEEENS_4hashISA_EENS_8equal_toISA_EENS8_ISA_EEEEEEDTclsr3stdE4movedeclsr3stdE7forwardIT_Efp_EEEOSL_, symObjAddr: 0x84C0, symBinAddr: 0x100014BC0, symSize: 0x20 }
  - { offsetInCU: 0x1398A, offset: 0x478F5, size: 0x8, addend: 0x0, symName: __ZNSt3__114__split_bufferIPNS_13unordered_setINS_12basic_stringIcNS_11char_traitsIcEENS_9allocatorIcEEEENS_4hashIS7_EENS_8equal_toIS7_EENS5_IS7_EEEERNS5_ISE_EEE21_ConstructTransactionD2B7v160006Ev, symObjAddr: 0x84E0, symBinAddr: 0x100014BE0, symSize: 0x20 }
  - { offsetInCU: 0x139B2, offset: 0x4791D, size: 0x8, addend: 0x0, symName: __ZNSt3__113move_iteratorIPPNS_13unordered_setINS_12basic_stringIcNS_11char_traitsIcEENS_9allocatorIcEEEENS_4hashIS7_EENS_8equal_toIS7_EENS5_IS7_EEEEEC2B7v160006ESF_, symObjAddr: 0x8500, symBinAddr: 0x100014C00, symSize: 0x20 }
  - { offsetInCU: 0x139E8, offset: 0x47953, size: 0x8, addend: 0x0, symName: __ZNSt3__19allocatorINS_13unordered_setINS_12basic_stringIcNS_11char_traitsIcEENS0_IcEEEENS_4hashIS6_EENS_8equal_toIS6_EENS0_IS6_EEEEE8allocateB7v160006Em, symObjAddr: 0x85A0, symBinAddr: 0x100014C50, symSize: 0x50 }
  - { offsetInCU: 0x13A24, offset: 0x4798F, size: 0x8, addend: 0x0, symName: __ZNSt3__116allocator_traitsINS_9allocatorINS_13unordered_setINS_12basic_stringIcNS_11char_traitsIcEENS1_IcEEEENS_4hashIS7_EENS_8equal_toIS7_EENS1_IS7_EEEEEEE8max_sizeB7v160006ISE_vvEEmRKSE_, symObjAddr: 0x85F0, symBinAddr: 0x100014CA0, symSize: 0x30 }
  - { offsetInCU: 0x13A59, offset: 0x479C4, size: 0x8, addend: 0x0, symName: __ZNKSt3__123__move_backward_trivialclB7v160006IPNS_13unordered_setINS_12basic_stringIcNS_11char_traitsIcEENS_9allocatorIcEEEENS_4hashIS8_EENS_8equal_toIS8_EENS6_IS8_EEEESF_Li0EEENS_4pairIPT_PT0_EESI_SI_SK_, symObjAddr: 0x8790, symBinAddr: 0x100014E40, symSize: 0x40 }
  - { offsetInCU: 0x13ABF, offset: 0x47A2A, size: 0x8, addend: 0x0, symName: __ZNSt3__14pairIPPNS_13unordered_setINS_12basic_stringIcNS_11char_traitsIcEENS_9allocatorIcEEEENS_4hashIS7_EENS_8equal_toIS7_EENS5_IS7_EEEESF_EC1B7v160006IRSF_SI_LPv0EEEOT_OT0_, symObjAddr: 0x8880, symBinAddr: 0x100014F30, symSize: 0x30 }
  - { offsetInCU: 0x13B1C, offset: 0x47A87, size: 0x8, addend: 0x0, symName: __ZNSt3__14pairIPPNS_13unordered_setINS_12basic_stringIcNS_11char_traitsIcEENS_9allocatorIcEEEENS_4hashIS7_EENS_8equal_toIS7_EENS5_IS7_EEEESF_EC2B7v160006IRSF_SI_LPv0EEEOT_OT0_, symObjAddr: 0x88B0, symBinAddr: 0x100014F60, symSize: 0x30 }
  - { offsetInCU: 0x13B79, offset: 0x47AE4, size: 0x8, addend: 0x0, symName: __ZNSt3__114__split_bufferIPNS_13unordered_setINS_12basic_stringIcNS_11char_traitsIcEENS_9allocatorIcEEEENS_4hashIS7_EENS_8equal_toIS7_EENS5_IS7_EEEERNS5_ISE_EEEC2EmmSG_, symObjAddr: 0x8910, symBinAddr: 0x100014F90, symSize: 0xD0 }
  - { offsetInCU: 0x13BEF, offset: 0x47B5A, size: 0x8, addend: 0x0, symName: __ZNSt3__117__compressed_pairIPPNS_13unordered_setINS_12basic_stringIcNS_11char_traitsIcEENS_9allocatorIcEEEENS_4hashIS7_EENS_8equal_toIS7_EENS5_IS7_EEEERNS5_ISE_EEEC1B7v160006IDnSH_EEOT_OT0_, symObjAddr: 0x89E0, symBinAddr: 0x100015060, symSize: 0x30 }
  - { offsetInCU: 0x13C45, offset: 0x47BB0, size: 0x8, addend: 0x0, symName: __ZNSt3__117__compressed_pairIPPNS_13unordered_setINS_12basic_stringIcNS_11char_traitsIcEENS_9allocatorIcEEEENS_4hashIS7_EENS_8equal_toIS7_EENS5_IS7_EEEERNS5_ISE_EEEC2B7v160006IDnSH_EEOT_OT0_, symObjAddr: 0x8A50, symBinAddr: 0x1000150D0, symSize: 0x40 }
  - { offsetInCU: 0x13C9B, offset: 0x47C06, size: 0x8, addend: 0x0, symName: __ZNSt3__122__compressed_pair_elemIRNS_9allocatorIPNS_13unordered_setINS_12basic_stringIcNS_11char_traitsIcEENS1_IcEEEENS_4hashIS7_EENS_8equal_toIS7_EENS1_IS7_EEEEEELi1ELb0EEC2B7v160006ISG_vEEOT_, symObjAddr: 0x8AB0, symBinAddr: 0x100015110, symSize: 0x20 }
  - { offsetInCU: 0x13CDB, offset: 0x47C46, size: 0x8, addend: 0x0, symName: __ZNSt3__19allocatorIPNS_13unordered_setINS_12basic_stringIcNS_11char_traitsIcEENS0_IcEEEENS_4hashIS6_EENS_8equal_toIS6_EENS0_IS6_EEEEE8allocateB7v160006Em, symObjAddr: 0x8AD0, symBinAddr: 0x100015130, symSize: 0x50 }
  - { offsetInCU: 0x13D17, offset: 0x47C82, size: 0x8, addend: 0x0, symName: __ZNSt3__116allocator_traitsINS_9allocatorIPNS_13unordered_setINS_12basic_stringIcNS_11char_traitsIcEENS1_IcEEEENS_4hashIS7_EENS_8equal_toIS7_EENS1_IS7_EEEEEEE8max_sizeB7v160006ISF_vvEEmRKSF_, symObjAddr: 0x8B20, symBinAddr: 0x100015180, symSize: 0x20 }
  - { offsetInCU: 0x13D42, offset: 0x47CAD, size: 0x8, addend: 0x0, symName: __ZNSt3__122__allocator_destructorINS_9allocatorINS_13unordered_setINS_12basic_stringIcNS_11char_traitsIcEENS1_IcEEEENS_4hashIS7_EENS_8equal_toIS7_EENS1_IS7_EEEEEEEC2B7v160006ERSE_m, symObjAddr: 0x8B40, symBinAddr: 0x1000151A0, symSize: 0x30 }
  - { offsetInCU: 0x13D86, offset: 0x47CF1, size: 0x8, addend: 0x0, symName: __ZNSt3__110unique_ptrIPNS_13unordered_setINS_12basic_stringIcNS_11char_traitsIcEENS_9allocatorIcEEEENS_4hashIS7_EENS_8equal_toIS7_EENS5_IS7_EEEENS_22__allocator_destructorINS5_ISD_EEEEEC2B7v160006ILb1EvEESE_NS_16__dependent_typeINS_27__unique_ptr_deleter_sfinaeISH_EEXT_EE20__good_rval_ref_typeE, symObjAddr: 0x8B70, symBinAddr: 0x1000151D0, symSize: 0x40 }
  - { offsetInCU: 0x13DD5, offset: 0x47D40, size: 0x8, addend: 0x0, symName: __ZNSt3__117__compressed_pairIPNS_13unordered_setINS_12basic_stringIcNS_11char_traitsIcEENS_9allocatorIcEEEENS_4hashIS7_EENS_8equal_toIS7_EENS5_IS7_EEEENS_22__allocator_destructorINS5_ISD_EEEEEC1B7v160006IRSE_SH_EEOT_OT0_, symObjAddr: 0x8BB0, symBinAddr: 0x100015210, symSize: 0x30 }
  - { offsetInCU: 0x13E2B, offset: 0x47D96, size: 0x8, addend: 0x0, symName: __ZNSt3__117__compressed_pairIPNS_13unordered_setINS_12basic_stringIcNS_11char_traitsIcEENS_9allocatorIcEEEENS_4hashIS7_EENS_8equal_toIS7_EENS5_IS7_EEEENS_22__allocator_destructorINS5_ISD_EEEEEC2B7v160006IRSE_SH_EEOT_OT0_, symObjAddr: 0x8BE0, symBinAddr: 0x100015240, symSize: 0x40 }
  - { offsetInCU: 0x13E81, offset: 0x47DEC, size: 0x8, addend: 0x0, symName: __ZNSt3__122__compressed_pair_elemIPNS_13unordered_setINS_12basic_stringIcNS_11char_traitsIcEENS_9allocatorIcEEEENS_4hashIS7_EENS_8equal_toIS7_EENS5_IS7_EEEELi0ELb0EEC2B7v160006IRSE_vEEOT_, symObjAddr: 0x8C20, symBinAddr: 0x100015280, symSize: 0x20 }
  - { offsetInCU: 0x13EC1, offset: 0x47E2C, size: 0x8, addend: 0x0, symName: __ZNSt3__122__compressed_pair_elemINS_22__allocator_destructorINS_9allocatorINS_13unordered_setINS_12basic_stringIcNS_11char_traitsIcEENS2_IcEEEENS_4hashIS8_EENS_8equal_toIS8_EENS2_IS8_EEEEEEEELi1ELb0EEC2B7v160006ISG_vEEOT_, symObjAddr: 0x8C40, symBinAddr: 0x1000152A0, symSize: 0x30 }
  - { offsetInCU: 0x13F01, offset: 0x47E6C, size: 0x8, addend: 0x0, symName: __ZNKSt3__117__compressed_pairIPNS_13unordered_setINS_12basic_stringIcNS_11char_traitsIcEENS_9allocatorIcEEEENS_4hashIS7_EENS_8equal_toIS7_EENS5_IS7_EEEENS_22__allocator_destructorINS5_ISD_EEEEE5firstB7v160006Ev, symObjAddr: 0x8C70, symBinAddr: 0x1000152D0, symSize: 0x20 }
  - { offsetInCU: 0x13F25, offset: 0x47E90, size: 0x8, addend: 0x0, symName: __ZNKSt3__122__compressed_pair_elemIPNS_13unordered_setINS_12basic_stringIcNS_11char_traitsIcEENS_9allocatorIcEEEENS_4hashIS7_EENS_8equal_toIS7_EENS5_IS7_EEEELi0ELb0EE5__getB7v160006Ev, symObjAddr: 0x8C90, symBinAddr: 0x1000152F0, symSize: 0x10 }
  - { offsetInCU: 0x13F49, offset: 0x47EB4, size: 0x8, addend: 0x0, symName: __ZNSt3__117__compressed_pairIPNS_13unordered_setINS_12basic_stringIcNS_11char_traitsIcEENS_9allocatorIcEEEENS_4hashIS7_EENS_8equal_toIS7_EENS5_IS7_EEEENS_22__allocator_destructorINS5_ISD_EEEEE5firstB7v160006Ev, symObjAddr: 0x8CA0, symBinAddr: 0x100015300, symSize: 0x20 }
  - { offsetInCU: 0x13F6D, offset: 0x47ED8, size: 0x8, addend: 0x0, symName: __ZNSt3__122__compressed_pair_elemIPNS_13unordered_setINS_12basic_stringIcNS_11char_traitsIcEENS_9allocatorIcEEEENS_4hashIS7_EENS_8equal_toIS7_EENS5_IS7_EEEELi0ELb0EE5__getB7v160006Ev, symObjAddr: 0x8CC0, symBinAddr: 0x100015320, symSize: 0x10 }
  - { offsetInCU: 0x13F91, offset: 0x47EFC, size: 0x8, addend: 0x0, symName: __ZNSt3__117__compressed_pairIPPNS_13unordered_setINS_12basic_stringIcNS_11char_traitsIcEENS_9allocatorIcEEEENS_4hashIS7_EENS_8equal_toIS7_EENS5_IS7_EEEENS5_ISE_EEE5firstB7v160006Ev, symObjAddr: 0x8CD0, symBinAddr: 0x100015330, symSize: 0x20 }
  - { offsetInCU: 0x13FB5, offset: 0x47F20, size: 0x8, addend: 0x0, symName: __ZNSt3__122__compressed_pair_elemIPPNS_13unordered_setINS_12basic_stringIcNS_11char_traitsIcEENS_9allocatorIcEEEENS_4hashIS7_EENS_8equal_toIS7_EENS5_IS7_EEEELi0ELb0EE5__getB7v160006Ev, symObjAddr: 0x8CF0, symBinAddr: 0x100015350, symSize: 0x10 }
  - { offsetInCU: 0x13FD9, offset: 0x47F44, size: 0x8, addend: 0x0, symName: __ZNSt3__117__compressed_pairIPPNS_13unordered_setINS_12basic_stringIcNS_11char_traitsIcEENS_9allocatorIcEEEENS_4hashIS7_EENS_8equal_toIS7_EENS5_IS7_EEEERNS5_ISE_EEE5firstB7v160006Ev, symObjAddr: 0x8D00, symBinAddr: 0x100015360, symSize: 0x20 }
  - { offsetInCU: 0x13FFD, offset: 0x47F68, size: 0x8, addend: 0x0, symName: __ZNSt3__110unique_ptrIPNS_13unordered_setINS_12basic_stringIcNS_11char_traitsIcEENS_9allocatorIcEEEENS_4hashIS7_EENS_8equal_toIS7_EENS5_IS7_EEEENS_22__allocator_destructorINS5_ISD_EEEEED2B7v160006Ev, symObjAddr: 0x8D20, symBinAddr: 0x100015380, symSize: 0x20 }
  - { offsetInCU: 0x14025, offset: 0x47F90, size: 0x8, addend: 0x0, symName: __ZNSt3__110unique_ptrIPNS_13unordered_setINS_12basic_stringIcNS_11char_traitsIcEENS_9allocatorIcEEEENS_4hashIS7_EENS_8equal_toIS7_EENS5_IS7_EEEENS_22__allocator_destructorINS5_ISD_EEEEE5resetB7v160006ESE_, symObjAddr: 0x8D40, symBinAddr: 0x1000153A0, symSize: 0x70 }
  - { offsetInCU: 0x14067, offset: 0x47FD2, size: 0x8, addend: 0x0, symName: __ZNSt3__117__compressed_pairIPNS_13unordered_setINS_12basic_stringIcNS_11char_traitsIcEENS_9allocatorIcEEEENS_4hashIS7_EENS_8equal_toIS7_EENS5_IS7_EEEENS_22__allocator_destructorINS5_ISD_EEEEE6secondB7v160006Ev, symObjAddr: 0x8DB0, symBinAddr: 0x100015410, symSize: 0x20 }
  - { offsetInCU: 0x1408B, offset: 0x47FF6, size: 0x8, addend: 0x0, symName: __ZNSt3__122__allocator_destructorINS_9allocatorINS_13unordered_setINS_12basic_stringIcNS_11char_traitsIcEENS1_IcEEEENS_4hashIS7_EENS_8equal_toIS7_EENS1_IS7_EEEEEEEclB7v160006EPSD_, symObjAddr: 0x8DD0, symBinAddr: 0x100015430, symSize: 0x30 }
  - { offsetInCU: 0x140BD, offset: 0x48028, size: 0x8, addend: 0x0, symName: __ZNSt3__122__compressed_pair_elemINS_22__allocator_destructorINS_9allocatorINS_13unordered_setINS_12basic_stringIcNS_11char_traitsIcEENS2_IcEEEENS_4hashIS8_EENS_8equal_toIS8_EENS2_IS8_EEEEEEEELi1ELb0EE5__getB7v160006Ev, symObjAddr: 0x8E00, symBinAddr: 0x100015460, symSize: 0x10 }
  - { offsetInCU: 0x140E1, offset: 0x4804C, size: 0x8, addend: 0x0, symName: __ZNSt3__114__split_bufferIPNS_13unordered_setINS_12basic_stringIcNS_11char_traitsIcEENS_9allocatorIcEEEENS_4hashIS7_EENS_8equal_toIS7_EENS5_IS7_EEEERNS5_ISE_EEED2Ev, symObjAddr: 0x8E90, symBinAddr: 0x100015470, symSize: 0x70 }
  - { offsetInCU: 0x1410B, offset: 0x48076, size: 0x8, addend: 0x0, symName: __ZNSt3__114__split_bufferIPNS_13unordered_setINS_12basic_stringIcNS_11char_traitsIcEENS_9allocatorIcEEEENS_4hashIS7_EENS_8equal_toIS7_EENS5_IS7_EEEERNS5_ISE_EEE5clearB7v160006Ev, symObjAddr: 0x8F00, symBinAddr: 0x1000154E0, symSize: 0x20 }
  - { offsetInCU: 0x1412F, offset: 0x4809A, size: 0x8, addend: 0x0, symName: __ZNKSt3__114__split_bufferIPNS_13unordered_setINS_12basic_stringIcNS_11char_traitsIcEENS_9allocatorIcEEEENS_4hashIS7_EENS_8equal_toIS7_EENS5_IS7_EEEERNS5_ISE_EEE8capacityB7v160006Ev, symObjAddr: 0x8F50, symBinAddr: 0x100015500, symSize: 0x30 }
  - { offsetInCU: 0x14153, offset: 0x480BE, size: 0x8, addend: 0x0, symName: __ZNSt3__114__split_bufferIPNS_13unordered_setINS_12basic_stringIcNS_11char_traitsIcEENS_9allocatorIcEEEENS_4hashIS7_EENS_8equal_toIS7_EENS5_IS7_EEEERNS5_ISE_EEE17__destruct_at_endB7v160006EPSE_, symObjAddr: 0x8F80, symBinAddr: 0x100015530, symSize: 0x30 }
  - { offsetInCU: 0x14185, offset: 0x480F0, size: 0x8, addend: 0x0, symName: __ZNSt3__114__split_bufferIPNS_13unordered_setINS_12basic_stringIcNS_11char_traitsIcEENS_9allocatorIcEEEENS_4hashIS7_EENS_8equal_toIS7_EENS5_IS7_EEEERNS5_ISE_EEE17__destruct_at_endB7v160006EPSE_NS_17integral_constantIbLb0EEE, symObjAddr: 0x8FB0, symBinAddr: 0x100015560, symSize: 0x80 }
  - { offsetInCU: 0x141C4, offset: 0x4812F, size: 0x8, addend: 0x0, symName: __ZNKSt3__114__split_bufferIPNS_13unordered_setINS_12basic_stringIcNS_11char_traitsIcEENS_9allocatorIcEEEENS_4hashIS7_EENS_8equal_toIS7_EENS5_IS7_EEEERNS5_ISE_EEE9__end_capB7v160006Ev, symObjAddr: 0x90C0, symBinAddr: 0x1000155E0, symSize: 0x20 }
  - { offsetInCU: 0x141E8, offset: 0x48153, size: 0x8, addend: 0x0, symName: __ZNKSt3__117__compressed_pairIPPNS_13unordered_setINS_12basic_stringIcNS_11char_traitsIcEENS_9allocatorIcEEEENS_4hashIS7_EENS_8equal_toIS7_EENS5_IS7_EEEERNS5_ISE_EEE5firstB7v160006Ev, symObjAddr: 0x90E0, symBinAddr: 0x100015600, symSize: 0x20 }
  - { offsetInCU: 0x1420C, offset: 0x48177, size: 0x8, addend: 0x0, symName: __ZNSt3__113unordered_setINS_12basic_stringIcNS_11char_traitsIcEENS_9allocatorIcEEEENS_4hashIS6_EENS_8equal_toIS6_EENS4_IS6_EEEC2ERKSC_, symObjAddr: 0x91E0, symBinAddr: 0x100015660, symSize: 0xA0 }
  - { offsetInCU: 0x14245, offset: 0x481B0, size: 0x8, addend: 0x0, symName: __ZNSt3__112__hash_tableINS_12basic_stringIcNS_11char_traitsIcEENS_9allocatorIcEEEENS_4hashIS6_EENS_8equal_toIS6_EENS4_IS6_EEEC1ERKSC_, symObjAddr: 0x9280, symBinAddr: 0x100015700, symSize: 0x30 }
  - { offsetInCU: 0x1427E, offset: 0x481E9, size: 0x8, addend: 0x0, symName: __ZNKSt3__113unordered_setINS_12basic_stringIcNS_11char_traitsIcEENS_9allocatorIcEEEENS_4hashIS6_EENS_8equal_toIS6_EENS4_IS6_EEE12bucket_countB7v160006Ev, symObjAddr: 0x92B0, symBinAddr: 0x100015730, symSize: 0x20 }
  - { offsetInCU: 0x142A2, offset: 0x4820D, size: 0x8, addend: 0x0, symName: __ZNSt3__113unordered_setINS_12basic_stringIcNS_11char_traitsIcEENS_9allocatorIcEEEENS_4hashIS6_EENS_8equal_toIS6_EENS4_IS6_EEE6insertINS_21__hash_const_iteratorIPNS_11__hash_nodeIS6_PvEEEEEEvT_SK_, symObjAddr: 0x92D0, symBinAddr: 0x100015750, symSize: 0x70 }
  - { offsetInCU: 0x142F0, offset: 0x4825B, size: 0x8, addend: 0x0, symName: __ZNKSt3__113unordered_setINS_12basic_stringIcNS_11char_traitsIcEENS_9allocatorIcEEEENS_4hashIS6_EENS_8equal_toIS6_EENS4_IS6_EEE5beginB7v160006Ev, symObjAddr: 0x9340, symBinAddr: 0x1000157C0, symSize: 0x30 }
  - { offsetInCU: 0x14314, offset: 0x4827F, size: 0x8, addend: 0x0, symName: __ZNKSt3__113unordered_setINS_12basic_stringIcNS_11char_traitsIcEENS_9allocatorIcEEEENS_4hashIS6_EENS_8equal_toIS6_EENS4_IS6_EEE3endB7v160006Ev, symObjAddr: 0x9370, symBinAddr: 0x1000157F0, symSize: 0x30 }
  - { offsetInCU: 0x14338, offset: 0x482A3, size: 0x8, addend: 0x0, symName: __ZNSt3__112__hash_tableINS_12basic_stringIcNS_11char_traitsIcEENS_9allocatorIcEEEENS_4hashIS6_EENS_8equal_toIS6_EENS4_IS6_EEEC2ERKSC_, symObjAddr: 0x93A0, symBinAddr: 0x100015820, symSize: 0x100 }
  - { offsetInCU: 0x14371, offset: 0x482DC, size: 0x8, addend: 0x0, symName: __ZNSt3__116allocator_traitsINS_9allocatorIPNS_16__hash_node_baseIPNS_11__hash_nodeINS_12basic_stringIcNS_11char_traitsIcEENS1_IcEEEEPvEEEEEEE37select_on_container_copy_constructionB7v160006ISE_vvEESE_RKSE_, symObjAddr: 0x94A0, symBinAddr: 0x100015920, symSize: 0x10 }
  - { offsetInCU: 0x1439F, offset: 0x4830A, size: 0x8, addend: 0x0, symName: __ZNKSt3__125__bucket_list_deallocatorINS_9allocatorIPNS_16__hash_node_baseIPNS_11__hash_nodeINS_12basic_stringIcNS_11char_traitsIcEENS1_IcEEEEPvEEEEEEE7__allocB7v160006Ev, symObjAddr: 0x94B0, symBinAddr: 0x100015930, symSize: 0x20 }
  - { offsetInCU: 0x143C3, offset: 0x4832E, size: 0x8, addend: 0x0, symName: __ZNSt3__125__bucket_list_deallocatorINS_9allocatorIPNS_16__hash_node_baseIPNS_11__hash_nodeINS_12basic_stringIcNS_11char_traitsIcEENS1_IcEEEEPvEEEEEEEC1B7v160006ERKSE_m, symObjAddr: 0x94D0, symBinAddr: 0x100015950, symSize: 0x30 }
  - { offsetInCU: 0x14409, offset: 0x48374, size: 0x8, addend: 0x0, symName: __ZNSt3__110unique_ptrIA_PNS_16__hash_node_baseIPNS_11__hash_nodeINS_12basic_stringIcNS_11char_traitsIcEENS_9allocatorIcEEEEPvEEEENS_25__bucket_list_deallocatorINS6_ISD_EEEEEC1B7v160006ILb1EvEEDnNS_16__dependent_typeINS_27__unique_ptr_deleter_sfinaeISH_EEXT_EE20__good_rval_ref_typeE, symObjAddr: 0x9500, symBinAddr: 0x100015980, symSize: 0x30 }
  - { offsetInCU: 0x14457, offset: 0x483C2, size: 0x8, addend: 0x0, symName: __ZNSt3__116allocator_traitsINS_9allocatorINS_11__hash_nodeINS_12basic_stringIcNS_11char_traitsIcEENS1_IcEEEEPvEEEEE37select_on_container_copy_constructionB7v160006ISA_vvEESA_RKSA_, symObjAddr: 0x9530, symBinAddr: 0x1000159B0, symSize: 0x10 }
  - { offsetInCU: 0x14485, offset: 0x483F0, size: 0x8, addend: 0x0, symName: __ZNKSt3__112__hash_tableINS_12basic_stringIcNS_11char_traitsIcEENS_9allocatorIcEEEENS_4hashIS6_EENS_8equal_toIS6_EENS4_IS6_EEE12__node_allocB7v160006Ev, symObjAddr: 0x9540, symBinAddr: 0x1000159C0, symSize: 0x20 }
  - { offsetInCU: 0x144AE, offset: 0x48419, size: 0x8, addend: 0x0, symName: __ZNSt3__117__compressed_pairINS_16__hash_node_baseIPNS_11__hash_nodeINS_12basic_stringIcNS_11char_traitsIcEENS_9allocatorIcEEEEPvEEEENS6_ISA_EEEC1B7v160006INS_18__default_init_tagESD_EEOT_OT0_, symObjAddr: 0x9560, symBinAddr: 0x1000159E0, symSize: 0x30 }
  - { offsetInCU: 0x14504, offset: 0x4846F, size: 0x8, addend: 0x0, symName: __ZNKSt3__112__hash_tableINS_12basic_stringIcNS_11char_traitsIcEENS_9allocatorIcEEEENS_4hashIS6_EENS_8equal_toIS6_EENS4_IS6_EEE13hash_functionB7v160006Ev, symObjAddr: 0x9590, symBinAddr: 0x100015A10, symSize: 0x20 }
  - { offsetInCU: 0x14528, offset: 0x48493, size: 0x8, addend: 0x0, symName: __ZNSt3__117__compressed_pairImNS_4hashINS_12basic_stringIcNS_11char_traitsIcEENS_9allocatorIcEEEEEEEC1B7v160006IiRKS8_EEOT_OT0_, symObjAddr: 0x95B0, symBinAddr: 0x100015A30, symSize: 0x30 }
  - { offsetInCU: 0x1457E, offset: 0x484E9, size: 0x8, addend: 0x0, symName: __ZNKSt3__117__compressed_pairImNS_9allocatorIPNS_16__hash_node_baseIPNS_11__hash_nodeINS_12basic_stringIcNS_11char_traitsIcEENS1_IcEEEEPvEEEEEEE6secondB7v160006Ev, symObjAddr: 0x95E0, symBinAddr: 0x100015A60, symSize: 0x20 }
  - { offsetInCU: 0x145A2, offset: 0x4850D, size: 0x8, addend: 0x0, symName: __ZNKSt3__122__compressed_pair_elemINS_9allocatorIPNS_16__hash_node_baseIPNS_11__hash_nodeINS_12basic_stringIcNS_11char_traitsIcEENS1_IcEEEEPvEEEEEELi1ELb1EE5__getB7v160006Ev, symObjAddr: 0x9600, symBinAddr: 0x100015A80, symSize: 0x10 }
  - { offsetInCU: 0x145C6, offset: 0x48531, size: 0x8, addend: 0x0, symName: __ZNSt3__125__bucket_list_deallocatorINS_9allocatorIPNS_16__hash_node_baseIPNS_11__hash_nodeINS_12basic_stringIcNS_11char_traitsIcEENS1_IcEEEEPvEEEEEEEC2B7v160006ERKSE_m, symObjAddr: 0x9610, symBinAddr: 0x100015A90, symSize: 0x40 }
  - { offsetInCU: 0x1460C, offset: 0x48577, size: 0x8, addend: 0x0, symName: __ZNSt3__117__compressed_pairImNS_9allocatorIPNS_16__hash_node_baseIPNS_11__hash_nodeINS_12basic_stringIcNS_11char_traitsIcEENS1_IcEEEEPvEEEEEEEC1B7v160006IRmRKSE_EEOT_OT0_, symObjAddr: 0x9650, symBinAddr: 0x100015AD0, symSize: 0x30 }
  - { offsetInCU: 0x14662, offset: 0x485CD, size: 0x8, addend: 0x0, symName: __ZNSt3__117__compressed_pairImNS_9allocatorIPNS_16__hash_node_baseIPNS_11__hash_nodeINS_12basic_stringIcNS_11char_traitsIcEENS1_IcEEEEPvEEEEEEEC2B7v160006IRmRKSE_EEOT_OT0_, symObjAddr: 0x9680, symBinAddr: 0x100015B00, symSize: 0x40 }
  - { offsetInCU: 0x146B8, offset: 0x48623, size: 0x8, addend: 0x0, symName: __ZNSt3__122__compressed_pair_elemImLi0ELb0EEC2B7v160006IRmvEEOT_, symObjAddr: 0x96C0, symBinAddr: 0x100015B40, symSize: 0x20 }
  - { offsetInCU: 0x146F8, offset: 0x48663, size: 0x8, addend: 0x0, symName: __ZNSt3__122__compressed_pair_elemINS_9allocatorIPNS_16__hash_node_baseIPNS_11__hash_nodeINS_12basic_stringIcNS_11char_traitsIcEENS1_IcEEEEPvEEEEEELi1ELb1EEC2B7v160006IRKSE_vEEOT_, symObjAddr: 0x96E0, symBinAddr: 0x100015B60, symSize: 0x10 }
  - { offsetInCU: 0x14738, offset: 0x486A3, size: 0x8, addend: 0x0, symName: __ZNSt3__110unique_ptrIA_PNS_16__hash_node_baseIPNS_11__hash_nodeINS_12basic_stringIcNS_11char_traitsIcEENS_9allocatorIcEEEEPvEEEENS_25__bucket_list_deallocatorINS6_ISD_EEEEEC2B7v160006ILb1EvEEDnNS_16__dependent_typeINS_27__unique_ptr_deleter_sfinaeISH_EEXT_EE20__good_rval_ref_typeE, symObjAddr: 0x96F0, symBinAddr: 0x100015B70, symSize: 0x40 }
  - { offsetInCU: 0x14786, offset: 0x486F1, size: 0x8, addend: 0x0, symName: __ZNSt3__117__compressed_pairIPPNS_16__hash_node_baseIPNS_11__hash_nodeINS_12basic_stringIcNS_11char_traitsIcEENS_9allocatorIcEEEEPvEEEENS_25__bucket_list_deallocatorINS6_ISD_EEEEEC1B7v160006IDnSH_EEOT_OT0_, symObjAddr: 0x9730, symBinAddr: 0x100015BB0, symSize: 0x30 }
  - { offsetInCU: 0x147DC, offset: 0x48747, size: 0x8, addend: 0x0, symName: __ZNSt3__117__compressed_pairIPPNS_16__hash_node_baseIPNS_11__hash_nodeINS_12basic_stringIcNS_11char_traitsIcEENS_9allocatorIcEEEEPvEEEENS_25__bucket_list_deallocatorINS6_ISD_EEEEEC2B7v160006IDnSH_EEOT_OT0_, symObjAddr: 0x9760, symBinAddr: 0x100015BE0, symSize: 0x40 }
  - { offsetInCU: 0x14832, offset: 0x4879D, size: 0x8, addend: 0x0, symName: __ZNSt3__122__compressed_pair_elemIPPNS_16__hash_node_baseIPNS_11__hash_nodeINS_12basic_stringIcNS_11char_traitsIcEENS_9allocatorIcEEEEPvEEEELi0ELb0EEC2B7v160006IDnvEEOT_, symObjAddr: 0x97A0, symBinAddr: 0x100015C20, symSize: 0x20 }
  - { offsetInCU: 0x14872, offset: 0x487DD, size: 0x8, addend: 0x0, symName: __ZNSt3__122__compressed_pair_elemINS_25__bucket_list_deallocatorINS_9allocatorIPNS_16__hash_node_baseIPNS_11__hash_nodeINS_12basic_stringIcNS_11char_traitsIcEENS2_IcEEEEPvEEEEEEEELi1ELb0EEC2B7v160006ISG_vEEOT_, symObjAddr: 0x97C0, symBinAddr: 0x100015C40, symSize: 0x30 }
  - { offsetInCU: 0x148B2, offset: 0x4881D, size: 0x8, addend: 0x0, symName: __ZNSt3__125__bucket_list_deallocatorINS_9allocatorIPNS_16__hash_node_baseIPNS_11__hash_nodeINS_12basic_stringIcNS_11char_traitsIcEENS1_IcEEEEPvEEEEEEEC1B7v160006EOSF_, symObjAddr: 0x97F0, symBinAddr: 0x100015C70, symSize: 0x30 }
  - { offsetInCU: 0x148E9, offset: 0x48854, size: 0x8, addend: 0x0, symName: __ZNSt3__125__bucket_list_deallocatorINS_9allocatorIPNS_16__hash_node_baseIPNS_11__hash_nodeINS_12basic_stringIcNS_11char_traitsIcEENS1_IcEEEEPvEEEEEEEC2B7v160006EOSF_, symObjAddr: 0x9820, symBinAddr: 0x100015CA0, symSize: 0x40 }
  - { offsetInCU: 0x14920, offset: 0x4888B, size: 0x8, addend: 0x0, symName: __ZNKSt3__117__compressed_pairINS_16__hash_node_baseIPNS_11__hash_nodeINS_12basic_stringIcNS_11char_traitsIcEENS_9allocatorIcEEEEPvEEEENS6_ISA_EEE6secondB7v160006Ev, symObjAddr: 0x9860, symBinAddr: 0x100015CE0, symSize: 0x20 }
  - { offsetInCU: 0x14944, offset: 0x488AF, size: 0x8, addend: 0x0, symName: __ZNKSt3__122__compressed_pair_elemINS_9allocatorINS_11__hash_nodeINS_12basic_stringIcNS_11char_traitsIcEENS1_IcEEEEPvEEEELi1ELb1EE5__getB7v160006Ev, symObjAddr: 0x9880, symBinAddr: 0x100015D00, symSize: 0x10 }
  - { offsetInCU: 0x14968, offset: 0x488D3, size: 0x8, addend: 0x0, symName: __ZNSt3__117__compressed_pairINS_16__hash_node_baseIPNS_11__hash_nodeINS_12basic_stringIcNS_11char_traitsIcEENS_9allocatorIcEEEEPvEEEENS6_ISA_EEEC2B7v160006INS_18__default_init_tagESD_EEOT_OT0_, symObjAddr: 0x9890, symBinAddr: 0x100015D10, symSize: 0x40 }
  - { offsetInCU: 0x149BE, offset: 0x48929, size: 0x8, addend: 0x0, symName: __ZNSt3__122__compressed_pair_elemINS_16__hash_node_baseIPNS_11__hash_nodeINS_12basic_stringIcNS_11char_traitsIcEENS_9allocatorIcEEEEPvEEEELi0ELb0EEC2B7v160006ENS_18__default_init_tagE, symObjAddr: 0x98D0, symBinAddr: 0x100015D50, symSize: 0x20 }
  - { offsetInCU: 0x149F0, offset: 0x4895B, size: 0x8, addend: 0x0, symName: __ZNSt3__122__compressed_pair_elemINS_9allocatorINS_11__hash_nodeINS_12basic_stringIcNS_11char_traitsIcEENS1_IcEEEEPvEEEELi1ELb1EEC2B7v160006ISA_vEEOT_, symObjAddr: 0x98F0, symBinAddr: 0x100015D70, symSize: 0x10 }
  - { offsetInCU: 0x14A30, offset: 0x4899B, size: 0x8, addend: 0x0, symName: __ZNKSt3__117__compressed_pairImNS_4hashINS_12basic_stringIcNS_11char_traitsIcEENS_9allocatorIcEEEEEEE6secondB7v160006Ev, symObjAddr: 0x9900, symBinAddr: 0x100015D80, symSize: 0x20 }
  - { offsetInCU: 0x14A54, offset: 0x489BF, size: 0x8, addend: 0x0, symName: __ZNKSt3__122__compressed_pair_elemINS_4hashINS_12basic_stringIcNS_11char_traitsIcEENS_9allocatorIcEEEEEELi1ELb1EE5__getB7v160006Ev, symObjAddr: 0x9920, symBinAddr: 0x100015DA0, symSize: 0x10 }
  - { offsetInCU: 0x14A78, offset: 0x489E3, size: 0x8, addend: 0x0, symName: __ZNSt3__117__compressed_pairImNS_4hashINS_12basic_stringIcNS_11char_traitsIcEENS_9allocatorIcEEEEEEEC2B7v160006IiRKS8_EEOT_OT0_, symObjAddr: 0x9930, symBinAddr: 0x100015DB0, symSize: 0x40 }
  - { offsetInCU: 0x14ACE, offset: 0x48A39, size: 0x8, addend: 0x0, symName: __ZNSt3__122__compressed_pair_elemINS_4hashINS_12basic_stringIcNS_11char_traitsIcEENS_9allocatorIcEEEEEELi1ELb1EEC2B7v160006IRKS8_vEEOT_, symObjAddr: 0x9970, symBinAddr: 0x100015DF0, symSize: 0x10 }
  - { offsetInCU: 0x14B0E, offset: 0x48A79, size: 0x8, addend: 0x0, symName: __ZNKSt3__112__hash_tableINS_12basic_stringIcNS_11char_traitsIcEENS_9allocatorIcEEEENS_4hashIS6_EENS_8equal_toIS6_EENS4_IS6_EEE5beginEv, symObjAddr: 0x9980, symBinAddr: 0x100015E00, symSize: 0x40 }
  - { offsetInCU: 0x14B35, offset: 0x48AA0, size: 0x8, addend: 0x0, symName: __ZNKSt3__117__compressed_pairINS_16__hash_node_baseIPNS_11__hash_nodeINS_12basic_stringIcNS_11char_traitsIcEENS_9allocatorIcEEEEPvEEEENS6_ISA_EEE5firstB7v160006Ev, symObjAddr: 0x99C0, symBinAddr: 0x100015E40, symSize: 0x20 }
  - { offsetInCU: 0x14B59, offset: 0x48AC4, size: 0x8, addend: 0x0, symName: __ZNSt3__121__hash_const_iteratorIPNS_11__hash_nodeINS_12basic_stringIcNS_11char_traitsIcEENS_9allocatorIcEEEEPvEEEC1B7v160006EPNS_16__hash_node_baseISA_EEPKv, symObjAddr: 0x99E0, symBinAddr: 0x100015E60, symSize: 0x30 }
  - { offsetInCU: 0x14B9F, offset: 0x48B0A, size: 0x8, addend: 0x0, symName: __ZNKSt3__122__compressed_pair_elemINS_16__hash_node_baseIPNS_11__hash_nodeINS_12basic_stringIcNS_11char_traitsIcEENS_9allocatorIcEEEEPvEEEELi0ELb0EE5__getB7v160006Ev, symObjAddr: 0x9A10, symBinAddr: 0x100015E90, symSize: 0x10 }
  - { offsetInCU: 0x14BC3, offset: 0x48B2E, size: 0x8, addend: 0x0, symName: __ZNSt3__121__hash_const_iteratorIPNS_11__hash_nodeINS_12basic_stringIcNS_11char_traitsIcEENS_9allocatorIcEEEEPvEEEC2B7v160006EPNS_16__hash_node_baseISA_EEPKv, symObjAddr: 0x9A20, symBinAddr: 0x100015EA0, symSize: 0x20 }
  - { offsetInCU: 0x14C09, offset: 0x48B74, size: 0x8, addend: 0x0, symName: __ZNKSt3__112__hash_tableINS_12basic_stringIcNS_11char_traitsIcEENS_9allocatorIcEEEENS_4hashIS6_EENS_8equal_toIS6_EENS4_IS6_EEE3endEv, symObjAddr: 0x9A40, symBinAddr: 0x100015EC0, symSize: 0x30 }
  - { offsetInCU: 0x14C30, offset: 0x48B9B, size: 0x8, addend: 0x0, symName: __ZNSt3__112__hash_tableINS_12basic_stringIcNS_11char_traitsIcEENS_9allocatorIcEEEENS_4hashIS6_EENS_8equal_toIS6_EENS4_IS6_EEE5beginEv, symObjAddr: 0x9A70, symBinAddr: 0x100015EF0, symSize: 0x40 }
  - { offsetInCU: 0x14C57, offset: 0x48BC2, size: 0x8, addend: 0x0, symName: __ZNSt3__112__hash_tableINS_12basic_stringIcNS_11char_traitsIcEENS_9allocatorIcEEEENS_4hashIS6_EENS_8equal_toIS6_EENS4_IS6_EEE3endEv, symObjAddr: 0x9AB0, symBinAddr: 0x100015F30, symSize: 0x30 }
  - { offsetInCU: 0x14C7E, offset: 0x48BE9, size: 0x8, addend: 0x0, symName: __ZNSt3__16__treeINS_12__value_typeINS_12basic_stringIcNS_11char_traitsIcEENS_9allocatorIcEEEEiEENS_19__map_value_compareIS7_S8_NS_4lessIS7_EELb1EEENS5_IS8_EEE5eraseENS_21__tree_const_iteratorIS8_PNS_11__tree_nodeIS8_PvEElEE, symObjAddr: 0x9B10, symBinAddr: 0x100015F90, symSize: 0x90 }
  - { offsetInCU: 0x14CE1, offset: 0x48C4C, size: 0x8, addend: 0x0, symName: __ZNSt3__121__tree_const_iteratorINS_12__value_typeINS_12basic_stringIcNS_11char_traitsIcEENS_9allocatorIcEEEEiEEPNS_11__tree_nodeIS8_PvEElEC1B7v160006ENS_15__tree_iteratorIS8_SC_lEE, symObjAddr: 0x9BA0, symBinAddr: 0x100016020, symSize: 0x30 }
  - { offsetInCU: 0x14D18, offset: 0x48C83, size: 0x8, addend: 0x0, symName: __ZNKSt3__121__tree_const_iteratorINS_12__value_typeINS_12basic_stringIcNS_11char_traitsIcEENS_9allocatorIcEEEEiEEPNS_11__tree_nodeIS8_PvEElE8__get_npB7v160006Ev, symObjAddr: 0x9BD0, symBinAddr: 0x100016050, symSize: 0x20 }
  - { offsetInCU: 0x14D3C, offset: 0x48CA7, size: 0x8, addend: 0x0, symName: __ZNSt3__16__treeINS_12__value_typeINS_12basic_stringIcNS_11char_traitsIcEENS_9allocatorIcEEEEiEENS_19__map_value_compareIS7_S8_NS_4lessIS7_EELb1EEENS5_IS8_EEE21__remove_node_pointerEPNS_11__tree_nodeIS8_PvEE, symObjAddr: 0x9BF0, symBinAddr: 0x100016070, symSize: 0xA0 }
  - { offsetInCU: 0x14D81, offset: 0x48CEC, size: 0x8, addend: 0x0, symName: __ZNKSt3__121__tree_const_iteratorINS_12__value_typeINS_12basic_stringIcNS_11char_traitsIcEENS_9allocatorIcEEEEiEEPNS_11__tree_nodeIS8_PvEElEdeB7v160006Ev, symObjAddr: 0x9C90, symBinAddr: 0x100016110, symSize: 0x20 }
  - { offsetInCU: 0x14DA5, offset: 0x48D10, size: 0x8, addend: 0x0, symName: __ZNSt3__115__tree_iteratorINS_12__value_typeINS_12basic_stringIcNS_11char_traitsIcEENS_9allocatorIcEEEEiEEPNS_11__tree_nodeIS8_PvEElEppB7v160006Ev, symObjAddr: 0x9CB0, symBinAddr: 0x100016130, symSize: 0x30 }
  - { offsetInCU: 0x14DC9, offset: 0x48D34, size: 0x8, addend: 0x0, symName: __ZNSt3__121__tree_const_iteratorINS_12__value_typeINS_12basic_stringIcNS_11char_traitsIcEENS_9allocatorIcEEEEiEEPNS_11__tree_nodeIS8_PvEElEC2B7v160006ENS_15__tree_iteratorIS8_SC_lEE, symObjAddr: 0xA3F0, symBinAddr: 0x100016870, symSize: 0x20 }
  - { offsetInCU: 0x14E00, offset: 0x48D6B, size: 0x8, addend: 0x0, symName: __ZNSt3__15dequeINS_13unordered_setINS_12basic_stringIcNS_11char_traitsIcEENS_9allocatorIcEEEENS_4hashIS7_EENS_8equal_toIS7_EENS5_IS7_EEEENS5_ISD_EEE8pop_backEv, symObjAddr: 0xA410, symBinAddr: 0x100016890, symSize: 0xB0 }
  - { offsetInCU: 0x14E45, offset: 0x48DB0, size: 0x8, addend: 0x0, symName: __ZNSt3__15dequeINS_13unordered_setINS_12basic_stringIcNS_11char_traitsIcEENS_9allocatorIcEEEENS_4hashIS7_EENS_8equal_toIS7_EENS5_IS7_EEEENS5_ISD_EEE25__maybe_remove_back_spareB7v160006Eb, symObjAddr: 0xA4F0, symBinAddr: 0x100016950, symSize: 0xA0 }
  - { offsetInCU: 0x14E78, offset: 0x48DE3, size: 0x8, addend: 0x0, symName: __ZNKSt3__15dequeINS_13unordered_setINS_12basic_stringIcNS_11char_traitsIcEENS_9allocatorIcEEEENS_4hashIS7_EENS_8equal_toIS7_EENS5_IS7_EEEENS5_ISD_EEE19__back_spare_blocksB7v160006Ev, symObjAddr: 0xA5D0, symBinAddr: 0x1000169F0, symSize: 0x30 }
  - { offsetInCU: 0x14E9C, offset: 0x48E07, size: 0x8, addend: 0x0, symName: __ZNSt3__114__split_bufferIPNS_13unordered_setINS_12basic_stringIcNS_11char_traitsIcEENS_9allocatorIcEEEENS_4hashIS7_EENS_8equal_toIS7_EENS5_IS7_EEEENS5_ISE_EEE4backB7v160006Ev, symObjAddr: 0xA600, symBinAddr: 0x100016A20, symSize: 0x20 }
  - { offsetInCU: 0x14EC0, offset: 0x48E2B, size: 0x8, addend: 0x0, symName: __ZNSt3__114__split_bufferIPNS_13unordered_setINS_12basic_stringIcNS_11char_traitsIcEENS_9allocatorIcEEEENS_4hashIS7_EENS_8equal_toIS7_EENS5_IS7_EEEENS5_ISE_EEE8pop_backB7v160006Ev, symObjAddr: 0xA620, symBinAddr: 0x100016A40, symSize: 0x30 }
  - { offsetInCU: 0x14EE4, offset: 0x48E4F, size: 0x8, addend: 0x0, symName: __ZNSt3__16__treeINS_12__value_typeINS_12basic_stringIcNS_11char_traitsIcEENS_9allocatorIcEEEEiEENS_19__map_value_compareIS7_S8_NS_4lessIS7_EELb1EEENS5_IS8_EEE5beginB7v160006Ev, symObjAddr: 0xA700, symBinAddr: 0x100016A70, symSize: 0x2B }
...
